; Listing generated by Microsoft (R) Optimizing Compiler Version 19.27.29112.0 

include listing.inc

INCLUDELIB OLDNAMES

PUBLIC	??_C@_0BC@EOODALEL@Unknown?5exception@		; `string'
PUBLIC	??_C@_0BF@KINCDENJ@bad?5array?5new?5length@	; `string'
PUBLIC	??_C@_0BA@JFNIOLAK@string?5too?5long@		; `string'
PUBLIC	??_C@_00CNPNBAHC@@				; `string'
PUBLIC	??_C@_08EPJLHIJG@bad?5cast@			; `string'
PUBLIC	??_C@_0BG@LNNHAOEF@invalid?5stod?5argument@	; `string'
PUBLIC	??_C@_0BL@PPHDABKE@stod?5argument?5out?5of?5range@ ; `string'
PUBLIC	??_C@_02NJPGOMH@?$CFf@				; `string'
PUBLIC	??_C@_01CLKCMJKC@?5@				; `string'
PUBLIC	??_C@_0CB@FLMHKFMH@Poczatek?5for?5loop?5za?5znakiem?5nr@ ; `string'
PUBLIC	??_C@_0BB@KCMABGGG@Wartosc?5min_za?3?5@		; `string'
PUBLIC	??_C@_0BO@JLEJEHLB@Koniec?5for?5loop?$CB?5dla?5poz_za?5?$CB@ ; `string'
PUBLIC	??_C@_0CF@LJFGBPDA@Poczatek?5for?5loop?5przed?5znakiem@ ; `string'
PUBLIC	??_C@_0BC@MOHMHDPK@Wartosc?5min_przed@		; `string'
PUBLIC	??_C@_0CB@LDKCMIJO@Koniec?5for?5loop?$CB?5dla?5poz_przed?5@ ; `string'
PUBLIC	??_C@_0BM@GIFJCLFB@Inicjalizacja?5while?5loop?4?$CB?5@ ; `string'
PUBLIC	??_C@_0BL@KKABNFML@Poczatkowa?5pozycja?5znaku?3?5@ ; `string'
PUBLIC	??_C@_0BA@CHAJAJMM@Rozmiar?5ciagu?3?5@		; `string'
PUBLIC	??_C@_0BL@NPGHNFLN@Zewnetrzna?5while?5loop?5nr?3?5@ ; `string'
PUBLIC	??_C@_0BL@BCCIHDDD@Wewnetrzna?5while?5loop?5nr?3?5@ ; `string'
PUBLIC	??_C@_0BG@POBPPMBB@Pozycja?5znaku?5nowa?5?3?5@	; `string'
PUBLIC	??_C@_0N@MPEBBJGL@Jaki?5znak?5?3?5@		; `string'
PUBLIC	??_C@_0BG@JGIPDIPP@Koniec?5petli?5glownej?5@	; `string'
PUBLIC	??_C@_0CH@DKNCFBCP@Znaleziono?5znak?0?5szukanie?5znako@ ; `string'
PUBLIC	??_C@_0P@JNFJFHKD@Pozycja?5lewa?$DN?5@		; `string'
PUBLIC	??_C@_03MPOOONGK@?$CI?9?$CJ@			; `string'
PUBLIC	??_C@_01NEMOKFLO@?$DN@				; `string'
PUBLIC	??_C@_0P@PGDIMPNJ@Wartosc?5lewa?$DN?5@		; `string'
PUBLIC	??_C@_0BA@PMKBAKBO@Pozycja?5prawa?$DN?5@	; `string'
PUBLIC	??_C@_0M@EIIOGGFI@War?5prawa?$DN?5@		; `string'
PUBLIC	??_C@_0N@OLHDHMLK@War?5wyraz?5?$DN?5@		; `string'
PUBLIC	??_C@_0BG@LOFLGAPA@Operacje?5matematyczne@	; `string'
PUBLIC	??_C@_0BM@IKOJLLGE@Zamiana?5wartosci?5na?5string?5@ ; `string'
PUBLIC	??_C@_0BD@HBLEFPHG@Zmiana?5w?5stringach@	; `string'
PUBLIC	??_C@_0BF@KKOOCJGH@String?5wyglada?5tak?3?5@	; `string'
PUBLIC	??_C@_0BH@MCLNCHGI@Nowa?5dlugosc?5stringa?3?5@	; `string'
PUBLIC	??_C@_0BM@BLDOMMGJ@Czy?$JMcimy?5stringi?5i?5wartosci@ ; `string'
PUBLIC	??_C@_03MHLONNLM@?5?$DN?5@			; `string'
PUBLIC	??_C@_0DG@EFCNPALD@Nie?5rozumiem?5liter?5?3?$CJ?5?$FLoprocz?5l@ ; `string'
PUBLIC	??_C@_0N@LPFKKEBD@?3AM?3am?3PM?3pm@		; `string'
PUBLIC	??_C@_0BI@CFPLBAOH@invalid?5string?5position@	; `string'
PUBLIC	??_C@_1BK@MHIKGOKE@?$AA?3?$AAA?$AAM?$AA?3?$AAa?$AAm?$AA?3?$AAP?$AAM?$AA?3?$AAp?$AAm@ ; `string'
PUBLIC	??_R4exception@std@@6B@				; std::exception::`RTTI Complete Object Locator'
PUBLIC	??_R2bad_array_new_length@std@@8		; std::bad_array_new_length::`RTTI Base Class Array'
PUBLIC	??_R0?AVbad_alloc@std@@@8			; std::bad_alloc `RTTI Type Descriptor'
PUBLIC	?xy@@3_JA					; xy
PUBLIC	?min_za@@3FA					; min_za
PUBLIC	??_R1A@?0A@EA@bad_cast@std@@8			; std::bad_cast::`RTTI Base Class Descriptor at (0,-1,0,64)'
PUBLIC	??_R2bad_alloc@std@@8				; std::bad_alloc::`RTTI Base Class Array'
PUBLIC	_CTA3?AVbad_array_new_length@std@@
PUBLIC	??_7bad_array_new_length@std@@6B@		; std::bad_array_new_length::`vftable'
PUBLIC	?min_przed@@3FA					; min_przed
PUBLIC	??_R1A@?0A@EA@exception@std@@8			; std::exception::`RTTI Base Class Descriptor at (0,-1,0,64)'
PUBLIC	??_R1A@?0A@EA@bad_alloc@std@@8			; std::bad_alloc::`RTTI Base Class Descriptor at (0,-1,0,64)'
PUBLIC	?_OptionsStorage@?1??__local_stdio_printf_options@@9@4_KA ; `__local_stdio_printf_options'::`2'::_OptionsStorage
PUBLIC	_CTA2?AVbad_cast@std@@
PUBLIC	??_7bad_alloc@std@@6B@				; std::bad_alloc::`vftable'
PUBLIC	??_R2bad_cast@std@@8				; std::bad_cast::`RTTI Base Class Array'
PUBLIC	??_R2exception@std@@8				; std::exception::`RTTI Base Class Array'
PUBLIC	??_7bad_cast@std@@6B@				; std::bad_cast::`vftable'
PUBLIC	?logi@@3HA					; logi
PUBLIC	??_R0?AVbad_cast@std@@@8			; std::bad_cast `RTTI Type Descriptor'
PUBLIC	_TI2?AVbad_cast@std@@
PUBLIC	??_7exception@std@@6B@				; std::exception::`vftable'
PUBLIC	??_R3exception@std@@8				; std::exception::`RTTI Class Hierarchy Descriptor'
PUBLIC	_CT??_R0?AVbad_array_new_length@std@@@8??0bad_array_new_length@std@@QEAA@AEBV01@@Z24
PUBLIC	?_Psave@?$_Facetptr@V?$ctype@D@std@@@std@@2PEBVfacet@locale@2@EB ; std::_Facetptr<std::ctype<char> >::_Psave
PUBLIC	??_R3bad_cast@std@@8				; std::bad_cast::`RTTI Class Hierarchy Descriptor'
PUBLIC	??_R4bad_alloc@std@@6B@				; std::bad_alloc::`RTTI Complete Object Locator'
PUBLIC	??_R4bad_cast@std@@6B@				; std::bad_cast::`RTTI Complete Object Locator'
PUBLIC	_CT??_R0?AVbad_cast@std@@@8??0bad_cast@std@@QEAA@AEBV01@@Z24
PUBLIC	??_R3bad_array_new_length@std@@8		; std::bad_array_new_length::`RTTI Class Hierarchy Descriptor'
PUBLIC	_CT??_R0?AVbad_alloc@std@@@8??0bad_alloc@std@@QEAA@AEBV01@@Z24
PUBLIC	??_R3bad_alloc@std@@8				; std::bad_alloc::`RTTI Class Hierarchy Descriptor'
PUBLIC	??_R4bad_array_new_length@std@@6B@		; std::bad_array_new_length::`RTTI Complete Object Locator'
PUBLIC	??_R1A@?0A@EA@bad_array_new_length@std@@8	; std::bad_array_new_length::`RTTI Base Class Descriptor at (0,-1,0,64)'
PUBLIC	_CT??_R0?AVexception@std@@@8??0exception@std@@QEAA@AEBV01@@Z24
PUBLIC	_TI3?AVbad_array_new_length@std@@
PUBLIC	??_R0?AVexception@std@@@8			; std::exception `RTTI Type Descriptor'
PUBLIC	??_R0?AVbad_array_new_length@std@@@8		; std::bad_array_new_length `RTTI Type Descriptor'
PUBLIC	?licznik@@3_JA					; licznik
EXTRN	__imp_?_Getcvt@_Locinfo@std@@QEBA?AU_Cvtvec@@XZ:PROC
EXTRN	__imp_?_Getdays@_Locinfo@std@@QEBAPEBDXZ:PROC
EXTRN	__imp_?_Getmonths@_Locinfo@std@@QEBAPEBDXZ:PROC
EXTRN	__imp_?_W_Getdays@_Locinfo@std@@QEBAPEBGXZ:PROC
EXTRN	__imp_?_W_Getmonths@_Locinfo@std@@QEBAPEBGXZ:PROC
EXTRN	__imp_??Bid@locale@std@@QEAA_KXZ:PROC
EXTRN	__imp_?is@?$ctype@D@std@@QEBA_NFD@Z:PROC
EXTRN	__imp_?_Getcat@?$ctype@D@std@@SA_KPEAPEBVfacet@locale@2@PEBV42@@Z:PROC
EXTRN	__imp_?rdstate@ios_base@std@@QEBAHXZ:PROC
EXTRN	__imp_?good@ios_base@std@@QEBA_NXZ:PROC
EXTRN	__imp_?flags@ios_base@std@@QEBAHXZ:PROC
EXTRN	__imp_?width@ios_base@std@@QEBA_JXZ:PROC
EXTRN	__imp_?width@ios_base@std@@QEAA_J_J@Z:PROC
EXTRN	__imp_?getloc@ios_base@std@@QEBA?AVlocale@2@XZ:PROC
EXTRN	__imp_??6?$basic_ostream@DU?$char_traits@D@std@@@std@@QEAAAEAV01@N@Z:PROC
EXTRN	__imp_??6?$basic_ostream@DU?$char_traits@D@std@@@std@@QEAAAEAV01@P6AAEAV01@AEAV01@@Z@Z:PROC
EXTRN	__imp_?fill@?$basic_ios@DU?$char_traits@D@std@@@std@@QEBADXZ:PROC
EXTRN	__imp_?rdbuf@?$basic_ios@DU?$char_traits@D@std@@@std@@QEBAPEAV?$basic_streambuf@DU?$char_traits@D@std@@@2@XZ:PROC
EXTRN	__imp_?setstate@?$basic_ios@DU?$char_traits@D@std@@@std@@QEAAXH_N@Z:PROC
EXTRN	__imp_?flush@?$basic_ostream@DU?$char_traits@D@std@@@std@@QEAAAEAV12@XZ:PROC
EXTRN	__imp_?_Osfx@?$basic_ostream@DU?$char_traits@D@std@@@std@@QEAAXXZ:PROC
EXTRN	__imp_?tie@?$basic_ios@DU?$char_traits@D@std@@@std@@QEBAPEAV?$basic_ostream@DU?$char_traits@D@std@@@2@XZ:PROC
EXTRN	__imp_?sputc@?$basic_streambuf@DU?$char_traits@D@std@@@std@@QEAAHD@Z:PROC
EXTRN	__imp_?sgetc@?$basic_streambuf@DU?$char_traits@D@std@@@std@@QEAAHXZ:PROC
EXTRN	__imp_?put@?$basic_ostream@DU?$char_traits@D@std@@@std@@QEAAAEAV12@D@Z:PROC
EXTRN	__imp_?widen@?$basic_ios@DU?$char_traits@D@std@@@std@@QEBADD@Z:PROC
EXTRN	__imp_?sputn@?$basic_streambuf@DU?$char_traits@D@std@@@std@@QEAA_JPEBD_J@Z:PROC
EXTRN	__imp_?snextc@?$basic_streambuf@DU?$char_traits@D@std@@@std@@QEAAHXZ:PROC
EXTRN	__imp_?_Ipfx@?$basic_istream@DU?$char_traits@D@std@@@std@@QEAA_N_N@Z:PROC
EXTRN	__imp__invalid_parameter_noinfo_noreturn:PROC
EXTRN	??_7type_info@@6B@:BYTE				; type_info::`vftable'
EXTRN	__imp___std_terminate:PROC
EXTRN	__imp___stdio_common_vsprintf:PROC
EXTRN	__imp__errno:PROC
EXTRN	??3@YAXPEAX_K@Z:PROC				; operator delete
EXTRN	__imp___stdio_common_vsprintf_s:PROC
EXTRN	__imp___std_exception_copy:PROC
EXTRN	__imp_?setprecision@std@@YA?AU?$_Smanip@_J@1@_J@Z:PROC
EXTRN	__imp_?_Xlength_error@std@@YAXPEBD@Z:PROC
EXTRN	__imp_?id@?$ctype@D@std@@2V0locale@2@A:QWORD
EXTRN	?_Facet_Register@std@@YAXPEAV_Facet_base@1@@Z:PROC ; std::_Facet_Register
EXTRN	__imp_?_Xout_of_range@std@@YAXPEBD@Z:PROC
EXTRN	__imp_?_Xinvalid_argument@std@@YAXPEBD@Z:PROC
EXTRN	__imp_?_Xbad_alloc@std@@YAXXZ:PROC
EXTRN	__imp_?cin@std@@3V?$basic_istream@DU?$char_traits@D@std@@@1@A:BYTE
EXTRN	__imp_?uncaught_exception@std@@YA_NXZ:PROC
EXTRN	__imp_?_Getgloballocale@locale@std@@CAPEAV_Locimp@12@XZ:PROC
EXTRN	__imp_?cout@std@@3V?$basic_ostream@DU?$char_traits@D@std@@@1@A:BYTE
EXTRN	__imp_??0_Lockit@std@@QEAA@H@Z:PROC
EXTRN	__imp_??1_Lockit@std@@QEAA@XZ:PROC
EXTRN	??2@YAPEAX_K@Z:PROC				; operator new
EXTRN	__imp_strtod:PROC
EXTRN	__imp_calloc:PROC
EXTRN	__imp__Mbrtowc:PROC
EXTRN	__imp___std_exception_destroy:PROC
EXTRN	__imp___CxxFrameHandler4:PROC
?xy@@3_JA DQ	01H DUP (?)				; xy
?min_za@@3FA DW	01H DUP (?)				; min_za
	ALIGN	4

?min_przed@@3FA DW 01H DUP (?)				; min_przed
_BSS	ENDS
;	COMDAT ?_OptionsStorage@?1??__local_stdio_printf_options@@9@4_KA
_BSS	SEGMENT
?_OptionsStorage@?1??__local_stdio_printf_options@@9@4_KA DQ 01H DUP (?) ; `__local_stdio_printf_options'::`2'::_OptionsStorage
	ALIGN	4

?logi@@3HA DD	01H DUP (?)				; logi
_BSS	ENDS
;	COMDAT ?_Psave@?$_Facetptr@V?$ctype@D@std@@@std@@2PEBVfacet@locale@2@EB
_BSS	SEGMENT
?_Psave@?$_Facetptr@V?$ctype@D@std@@@std@@2PEBVfacet@locale@2@EB DQ 01H DUP (?) ; std::_Facetptr<std::ctype<char> >::_Psave
	ALIGN	8

?licznik@@3_JA DQ 01H DUP (?)				; licznik
_BSS	ENDS
;	COMDAT ??_R0?AVbad_array_new_length@std@@@8
data$r	SEGMENT
??_R0?AVbad_array_new_length@std@@@8 DQ FLAT:??_7type_info@@6B@ ; std::bad_array_new_length `RTTI Type Descriptor'
	DQ	0000000000000000H
	DB	'.?AVbad_array_new_length@std@@', 00H
data$r	ENDS
;	COMDAT ??_R0?AVexception@std@@@8
data$r	SEGMENT
??_R0?AVexception@std@@@8 DQ FLAT:??_7type_info@@6B@	; std::exception `RTTI Type Descriptor'
	DQ	0000000000000000H
	DB	'.?AVexception@std@@', 00H
data$r	ENDS
;	COMDAT _TI3?AVbad_array_new_length@std@@
xdata$x	SEGMENT
_TI3?AVbad_array_new_length@std@@ DD 00H
	DD	imagerel ??1bad_array_new_length@std@@UEAA@XZ
	DD	00H
	DD	imagerel _CTA3?AVbad_array_new_length@std@@
xdata$x	ENDS
;	COMDAT _CT??_R0?AVexception@std@@@8??0exception@std@@QEAA@AEBV01@@Z24
xdata$x	SEGMENT
_CT??_R0?AVexception@std@@@8??0exception@std@@QEAA@AEBV01@@Z24 DD 00H
	DD	imagerel ??_R0?AVexception@std@@@8
	DD	00H
	DD	0ffffffffH
	ORG $+4
	DD	018H
	DD	imagerel ??0exception@std@@QEAA@AEBV01@@Z
xdata$x	ENDS
;	COMDAT ??_R1A@?0A@EA@bad_array_new_length@std@@8
rdata$r	SEGMENT
??_R1A@?0A@EA@bad_array_new_length@std@@8 DD imagerel ??_R0?AVbad_array_new_length@std@@@8 ; std::bad_array_new_length::`RTTI Base Class Descriptor at (0,-1,0,64)'
	DD	02H
	DD	00H
	DD	0ffffffffH
	DD	00H
	DD	040H
	DD	imagerel ??_R3bad_array_new_length@std@@8
rdata$r	ENDS
;	COMDAT ??_R4bad_array_new_length@std@@6B@
rdata$r	SEGMENT
??_R4bad_array_new_length@std@@6B@ DD 01H		; std::bad_array_new_length::`RTTI Complete Object Locator'
	DD	00H
	DD	00H
	DD	imagerel ??_R0?AVbad_array_new_length@std@@@8
	DD	imagerel ??_R3bad_array_new_length@std@@8
	DD	imagerel ??_R4bad_array_new_length@std@@6B@
rdata$r	ENDS
;	COMDAT ??_R3bad_alloc@std@@8
rdata$r	SEGMENT
??_R3bad_alloc@std@@8 DD 00H				; std::bad_alloc::`RTTI Class Hierarchy Descriptor'
	DD	00H
	DD	02H
	DD	imagerel ??_R2bad_alloc@std@@8
rdata$r	ENDS
;	COMDAT _CT??_R0?AVbad_alloc@std@@@8??0bad_alloc@std@@QEAA@AEBV01@@Z24
xdata$x	SEGMENT
_CT??_R0?AVbad_alloc@std@@@8??0bad_alloc@std@@QEAA@AEBV01@@Z24 DD 010H
	DD	imagerel ??_R0?AVbad_alloc@std@@@8
	DD	00H
	DD	0ffffffffH
	ORG $+4
	DD	018H
	DD	imagerel ??0bad_alloc@std@@QEAA@AEBV01@@Z
xdata$x	ENDS
;	COMDAT ??_R3bad_array_new_length@std@@8
rdata$r	SEGMENT
??_R3bad_array_new_length@std@@8 DD 00H			; std::bad_array_new_length::`RTTI Class Hierarchy Descriptor'
	DD	00H
	DD	03H
	DD	imagerel ??_R2bad_array_new_length@std@@8
rdata$r	ENDS
;	COMDAT _CT??_R0?AVbad_cast@std@@@8??0bad_cast@std@@QEAA@AEBV01@@Z24
xdata$x	SEGMENT
_CT??_R0?AVbad_cast@std@@@8??0bad_cast@std@@QEAA@AEBV01@@Z24 DD 00H
	DD	imagerel ??_R0?AVbad_cast@std@@@8
	DD	00H
	DD	0ffffffffH
	ORG $+4
	DD	018H
	DD	imagerel ??0bad_cast@std@@QEAA@AEBV01@@Z
xdata$x	ENDS
;	COMDAT ??_R4bad_cast@std@@6B@
rdata$r	SEGMENT
??_R4bad_cast@std@@6B@ DD 01H				; std::bad_cast::`RTTI Complete Object Locator'
	DD	00H
	DD	00H
	DD	imagerel ??_R0?AVbad_cast@std@@@8
	DD	imagerel ??_R3bad_cast@std@@8
	DD	imagerel ??_R4bad_cast@std@@6B@
rdata$r	ENDS
;	COMDAT ??_R4bad_alloc@std@@6B@
rdata$r	SEGMENT
??_R4bad_alloc@std@@6B@ DD 01H				; std::bad_alloc::`RTTI Complete Object Locator'
	DD	00H
	DD	00H
	DD	imagerel ??_R0?AVbad_alloc@std@@@8
	DD	imagerel ??_R3bad_alloc@std@@8
	DD	imagerel ??_R4bad_alloc@std@@6B@
rdata$r	ENDS
;	COMDAT ??_R3bad_cast@std@@8
rdata$r	SEGMENT
??_R3bad_cast@std@@8 DD 00H				; std::bad_cast::`RTTI Class Hierarchy Descriptor'
	DD	00H
	DD	02H
	DD	imagerel ??_R2bad_cast@std@@8
rdata$r	ENDS
;	COMDAT _CT??_R0?AVbad_array_new_length@std@@@8??0bad_array_new_length@std@@QEAA@AEBV01@@Z24
xdata$x	SEGMENT
_CT??_R0?AVbad_array_new_length@std@@@8??0bad_array_new_length@std@@QEAA@AEBV01@@Z24 DD 00H
	DD	imagerel ??_R0?AVbad_array_new_length@std@@@8
	DD	00H
	DD	0ffffffffH
	ORG $+4
	DD	018H
	DD	imagerel ??0bad_array_new_length@std@@QEAA@AEBV01@@Z
xdata$x	ENDS
;	COMDAT ??_R3exception@std@@8
rdata$r	SEGMENT
??_R3exception@std@@8 DD 00H				; std::exception::`RTTI Class Hierarchy Descriptor'
	DD	00H
	DD	01H
	DD	imagerel ??_R2exception@std@@8
rdata$r	ENDS
;	COMDAT ??_7exception@std@@6B@
CONST	SEGMENT
??_7exception@std@@6B@ DQ FLAT:??_R4exception@std@@6B@	; std::exception::`vftable'
	DQ	FLAT:??_Eexception@std@@UEAAPEAXI@Z
	DQ	FLAT:?what@exception@std@@UEBAPEBDXZ
CONST	ENDS
;	COMDAT _TI2?AVbad_cast@std@@
xdata$x	SEGMENT
_TI2?AVbad_cast@std@@ DD 00H
	DD	imagerel ??1bad_cast@std@@UEAA@XZ
	DD	00H
	DD	imagerel _CTA2?AVbad_cast@std@@
xdata$x	ENDS
;	COMDAT ??_R0?AVbad_cast@std@@@8
data$r	SEGMENT
??_R0?AVbad_cast@std@@@8 DQ FLAT:??_7type_info@@6B@	; std::bad_cast `RTTI Type Descriptor'
	DQ	0000000000000000H
	DB	'.?AVbad_cast@std@@', 00H
?chars_niedozwolone@@3QBDB DB 061H			; chars_niedozwolone
	DB	062H
	DB	063H
	DB	064H
	DB	065H
	DB	066H
	DB	067H
	DB	068H
	DB	069H
	DB	06aH
	DB	06bH
	DB	06dH
	DB	06eH
	DB	06fH
	DB	070H
	DB	071H
	DB	072H
	DB	073H
	DB	074H
	DB	075H
	DB	076H
	DB	077H
	DB	078H
	DB	079H
	DB	07aH
	ORG $+3
?chars@@3QBDB DB 06cH					; chars
	DB	05eH
	DB	02fH
	DB	02aH
	DB	02dH
	DB	02bH
CONST	ENDS
;	COMDAT ??_7bad_cast@std@@6B@
CONST	SEGMENT
??_7bad_cast@std@@6B@ DQ FLAT:??_R4bad_cast@std@@6B@	; std::bad_cast::`vftable'
	DQ	FLAT:??_Ebad_cast@std@@UEAAPEAXI@Z
	DQ	FLAT:?what@exception@std@@UEBAPEBDXZ
CONST	ENDS
;	COMDAT ??_R2exception@std@@8
rdata$r	SEGMENT
??_R2exception@std@@8 DD imagerel ??_R1A@?0A@EA@exception@std@@8 ; std::exception::`RTTI Base Class Array'
	ORG $+3
rdata$r	ENDS
;	COMDAT ??_R2bad_cast@std@@8
rdata$r	SEGMENT
??_R2bad_cast@std@@8 DD imagerel ??_R1A@?0A@EA@bad_cast@std@@8 ; std::bad_cast::`RTTI Base Class Array'
	DD	imagerel ??_R1A@?0A@EA@exception@std@@8
	ORG $+3
rdata$r	ENDS
;	COMDAT ??_7bad_alloc@std@@6B@
CONST	SEGMENT
??_7bad_alloc@std@@6B@ DQ FLAT:??_R4bad_alloc@std@@6B@	; std::bad_alloc::`vftable'
	DQ	FLAT:??_Ebad_alloc@std@@UEAAPEAXI@Z
	DQ	FLAT:?what@exception@std@@UEBAPEBDXZ
CONST	ENDS
;	COMDAT _CTA2?AVbad_cast@std@@
xdata$x	SEGMENT
_CTA2?AVbad_cast@std@@ DD 02H
	DD	imagerel _CT??_R0?AVbad_cast@std@@@8??0bad_cast@std@@QEAA@AEBV01@@Z24
	DD	imagerel _CT??_R0?AVexception@std@@@8??0exception@std@@QEAA@AEBV01@@Z24
xdata$x	ENDS
;	COMDAT ??_R1A@?0A@EA@bad_alloc@std@@8
rdata$r	SEGMENT
??_R1A@?0A@EA@bad_alloc@std@@8 DD imagerel ??_R0?AVbad_alloc@std@@@8 ; std::bad_alloc::`RTTI Base Class Descriptor at (0,-1,0,64)'
	DD	01H
	DD	00H
	DD	0ffffffffH
	DD	00H
	DD	040H
	DD	imagerel ??_R3bad_alloc@std@@8
rdata$r	ENDS
;	COMDAT ??_R1A@?0A@EA@exception@std@@8
rdata$r	SEGMENT
??_R1A@?0A@EA@exception@std@@8 DD imagerel ??_R0?AVexception@std@@@8 ; std::exception::`RTTI Base Class Descriptor at (0,-1,0,64)'
	DD	00H
	DD	00H
	DD	0ffffffffH
	DD	00H
	DD	040H
	DD	imagerel ??_R3exception@std@@8
rdata$r	ENDS
;	COMDAT ??_7bad_array_new_length@std@@6B@
CONST	SEGMENT
??_7bad_array_new_length@std@@6B@ DQ FLAT:??_R4bad_array_new_length@std@@6B@ ; std::bad_array_new_length::`vftable'
	DQ	FLAT:??_Ebad_array_new_length@std@@UEAAPEAXI@Z
	DQ	FLAT:?what@exception@std@@UEBAPEBDXZ
CONST	ENDS
;	COMDAT _CTA3?AVbad_array_new_length@std@@
xdata$x	SEGMENT
_CTA3?AVbad_array_new_length@std@@ DD 03H
	DD	imagerel _CT??_R0?AVbad_array_new_length@std@@@8??0bad_array_new_length@std@@QEAA@AEBV01@@Z24
	DD	imagerel _CT??_R0?AVbad_alloc@std@@@8??0bad_alloc@std@@QEAA@AEBV01@@Z24
	DD	imagerel _CT??_R0?AVexception@std@@@8??0exception@std@@QEAA@AEBV01@@Z24
xdata$x	ENDS
;	COMDAT ??_R2bad_alloc@std@@8
rdata$r	SEGMENT
??_R2bad_alloc@std@@8 DD imagerel ??_R1A@?0A@EA@bad_alloc@std@@8 ; std::bad_alloc::`RTTI Base Class Array'
	DD	imagerel ??_R1A@?0A@EA@exception@std@@8
	ORG $+3
rdata$r	ENDS
;	COMDAT ??_R1A@?0A@EA@bad_cast@std@@8
rdata$r	SEGMENT
??_R1A@?0A@EA@bad_cast@std@@8 DD imagerel ??_R0?AVbad_cast@std@@@8 ; std::bad_cast::`RTTI Base Class Descriptor at (0,-1,0,64)'
	DD	01H
	DD	00H
	DD	0ffffffffH
	DD	00H
	DD	040H
	DD	imagerel ??_R3bad_cast@std@@8
rdata$r	ENDS
;	COMDAT ??_R0?AVbad_alloc@std@@@8
data$r	SEGMENT
??_R0?AVbad_alloc@std@@@8 DQ FLAT:??_7type_info@@6B@	; std::bad_alloc `RTTI Type Descriptor'
	DQ	0000000000000000H
	DB	'.?AVbad_alloc@std@@', 00H
data$r	ENDS
;	COMDAT ??_R2bad_array_new_length@std@@8
rdata$r	SEGMENT
??_R2bad_array_new_length@std@@8 DD imagerel ??_R1A@?0A@EA@bad_array_new_length@std@@8 ; std::bad_array_new_length::`RTTI Base Class Array'
	DD	imagerel ??_R1A@?0A@EA@bad_alloc@std@@8
	DD	imagerel ??_R1A@?0A@EA@exception@std@@8
	ORG $+3
rdata$r	ENDS
;	COMDAT ??_R4exception@std@@6B@
rdata$r	SEGMENT
??_R4exception@std@@6B@ DD 01H				; std::exception::`RTTI Complete Object Locator'
	DD	00H
	DD	00H
	DD	imagerel ??_R0?AVexception@std@@@8
	DD	imagerel ??_R3exception@std@@8
	DD	imagerel ??_R4exception@std@@6B@
rdata$r	ENDS
;	COMDAT ??_C@_1BK@MHIKGOKE@?$AA?3?$AAA?$AAM?$AA?3?$AAa?$AAm?$AA?3?$AAP?$AAM?$AA?3?$AAp?$AAm@
CONST	SEGMENT
??_C@_1BK@MHIKGOKE@?$AA?3?$AAA?$AAM?$AA?3?$AAa?$AAm?$AA?3?$AAP?$AAM?$AA?3?$AAp?$AAm@ DB ':'
	DB	00H, 'A', 00H, 'M', 00H, ':', 00H, 'a', 00H, 'm', 00H, ':', 00H
	DB	'P', 00H, 'M', 00H, ':', 00H, 'p', 00H, 'm', 00H, 00H, 00H ; `string'
CONST	ENDS
;	COMDAT ??_C@_0BI@CFPLBAOH@invalid?5string?5position@
CONST	SEGMENT
??_C@_0BI@CFPLBAOH@invalid?5string?5position@ DB 'invalid string position'
	DB	00H						; `string'
CONST	ENDS
;	COMDAT ??_C@_0N@LPFKKEBD@?3AM?3am?3PM?3pm@
CONST	SEGMENT
??_C@_0N@LPFKKEBD@?3AM?3am?3PM?3pm@ DB ':AM:am:PM:pm', 00H ; `string'
CONST	ENDS
;	COMDAT ??_C@_0DG@EFCNPALD@Nie?5rozumiem?5liter?5?3?$CJ?5?$FLoprocz?5l@
CONST	SEGMENT
??_C@_0DG@EFCNPALD@Nie?5rozumiem?5liter?5?3?$CJ?5?$FLoprocz?5l@ DB 'Nie r'
	DB	'ozumiem liter :) [oprocz l(x) bo to logarytm :P]', 00H ; `string'
CONST	ENDS
;	COMDAT ??_C@_03MHLONNLM@?5?$DN?5@
CONST	SEGMENT
??_C@_03MHLONNLM@?5?$DN?5@ DB ' = ', 00H		; `string'
CONST	ENDS
;	COMDAT ??_C@_0BM@BLDOMMGJ@Czy?$JMcimy?5stringi?5i?5wartosci@
CONST	SEGMENT
??_C@_0BM@BLDOMMGJ@Czy?$JMcimy?5stringi?5i?5wartosci@ DB 'Czy', 09cH, 'ci'
	DB	'my stringi i wartosci', 00H			; `string'
CONST	ENDS
;	COMDAT ??_C@_0BH@MCLNCHGI@Nowa?5dlugosc?5stringa?3?5@
CONST	SEGMENT
??_C@_0BH@MCLNCHGI@Nowa?5dlugosc?5stringa?3?5@ DB 'Nowa dlugosc stringa: '
	DB	00H						; `string'
CONST	ENDS
;	COMDAT ??_C@_0BF@KKOOCJGH@String?5wyglada?5tak?3?5@
CONST	SEGMENT
??_C@_0BF@KKOOCJGH@String?5wyglada?5tak?3?5@ DB 'String wyglada tak: ', 00H ; `string'
CONST	ENDS
;	COMDAT ??_C@_0BD@HBLEFPHG@Zmiana?5w?5stringach@
CONST	SEGMENT
??_C@_0BD@HBLEFPHG@Zmiana?5w?5stringach@ DB 'Zmiana w stringach', 00H ; `string'
CONST	ENDS
;	COMDAT ??_C@_0BM@IKOJLLGE@Zamiana?5wartosci?5na?5string?5@
CONST	SEGMENT
??_C@_0BM@IKOJLLGE@Zamiana?5wartosci?5na?5string?5@ DB 'Zamiana wartosci '
	DB	'na string ', 00H				; `string'
CONST	ENDS
;	COMDAT ??_C@_0BG@LOFLGAPA@Operacje?5matematyczne@
CONST	SEGMENT
??_C@_0BG@LOFLGAPA@Operacje?5matematyczne@ DB 'Operacje matematyczne', 00H ; `string'
CONST	ENDS
;	COMDAT ??_C@_0N@OLHDHMLK@War?5wyraz?5?$DN?5@
CONST	SEGMENT
??_C@_0N@OLHDHMLK@War?5wyraz?5?$DN?5@ DB 'War wyraz = ', 00H ; `string'
CONST	ENDS
;	COMDAT ??_C@_0M@EIIOGGFI@War?5prawa?$DN?5@
CONST	SEGMENT
??_C@_0M@EIIOGGFI@War?5prawa?$DN?5@ DB 'War prawa= ', 00H ; `string'
CONST	ENDS
;	COMDAT ??_C@_0BA@PMKBAKBO@Pozycja?5prawa?$DN?5@
CONST	SEGMENT
??_C@_0BA@PMKBAKBO@Pozycja?5prawa?$DN?5@ DB 'Pozycja prawa= ', 00H ; `string'
CONST	ENDS
;	COMDAT ??_C@_0P@PGDIMPNJ@Wartosc?5lewa?$DN?5@
CONST	SEGMENT
??_C@_0P@PGDIMPNJ@Wartosc?5lewa?$DN?5@ DB 'Wartosc lewa= ', 00H ; `string'
CONST	ENDS
;	COMDAT ??_C@_01NEMOKFLO@?$DN@
CONST	SEGMENT
??_C@_01NEMOKFLO@?$DN@ DB '=', 00H			; `string'
CONST	ENDS
;	COMDAT ??_C@_03MPOOONGK@?$CI?9?$CJ@
CONST	SEGMENT
??_C@_03MPOOONGK@?$CI?9?$CJ@ DB '(-)', 00H		; `string'
CONST	ENDS
;	COMDAT ??_C@_0P@JNFJFHKD@Pozycja?5lewa?$DN?5@
CONST	SEGMENT
??_C@_0P@JNFJFHKD@Pozycja?5lewa?$DN?5@ DB 'Pozycja lewa= ', 00H ; `string'
CONST	ENDS
;	COMDAT ??_C@_0CH@DKNCFBCP@Znaleziono?5znak?0?5szukanie?5znako@
CONST	SEGMENT
??_C@_0CH@DKNCFBCP@Znaleziono?5znak?0?5szukanie?5znako@ DB 'Znaleziono zn'
	DB	'ak, szukanie znakow obok ', 00H		; `string'
CONST	ENDS
;	COMDAT ??_C@_0BG@JGIPDIPP@Koniec?5petli?5glownej?5@
CONST	SEGMENT
??_C@_0BG@JGIPDIPP@Koniec?5petli?5glownej?5@ DB 'Koniec petli glownej ', 00H ; `string'
CONST	ENDS
;	COMDAT ??_C@_0N@MPEBBJGL@Jaki?5znak?5?3?5@
CONST	SEGMENT
??_C@_0N@MPEBBJGL@Jaki?5znak?5?3?5@ DB 'Jaki znak : ', 00H ; `string'
CONST	ENDS
;	COMDAT ??_C@_0BG@POBPPMBB@Pozycja?5znaku?5nowa?5?3?5@
CONST	SEGMENT
??_C@_0BG@POBPPMBB@Pozycja?5znaku?5nowa?5?3?5@ DB 'Pozycja znaku nowa : ', 00H ; `string'
CONST	ENDS
;	COMDAT ??_C@_0BL@BCCIHDDD@Wewnetrzna?5while?5loop?5nr?3?5@
CONST	SEGMENT
??_C@_0BL@BCCIHDDD@Wewnetrzna?5while?5loop?5nr?3?5@ DB 'Wewnetrzna while '
	DB	'loop nr: ', 00H				; `string'
CONST	ENDS
;	COMDAT ??_C@_0BL@NPGHNFLN@Zewnetrzna?5while?5loop?5nr?3?5@
CONST	SEGMENT
??_C@_0BL@NPGHNFLN@Zewnetrzna?5while?5loop?5nr?3?5@ DB 'Zewnetrzna while '
	DB	'loop nr: ', 00H				; `string'
CONST	ENDS
;	COMDAT ??_C@_0BA@CHAJAJMM@Rozmiar?5ciagu?3?5@
CONST	SEGMENT
??_C@_0BA@CHAJAJMM@Rozmiar?5ciagu?3?5@ DB 'Rozmiar ciagu: ', 00H ; `string'
CONST	ENDS
;	COMDAT ??_C@_0BL@KKABNFML@Poczatkowa?5pozycja?5znaku?3?5@
CONST	SEGMENT
??_C@_0BL@KKABNFML@Poczatkowa?5pozycja?5znaku?3?5@ DB 'Poczatkowa pozycja'
	DB	' znaku: ', 00H				; `string'
CONST	ENDS
;	COMDAT ??_C@_0BM@GIFJCLFB@Inicjalizacja?5while?5loop?4?$CB?5@
CONST	SEGMENT
??_C@_0BM@GIFJCLFB@Inicjalizacja?5while?5loop?4?$CB?5@ DB 'Inicjalizacja '
	DB	'while loop.! ', 00H				; `string'
CONST	ENDS
;	COMDAT ??_C@_0CB@LDKCMIJO@Koniec?5for?5loop?$CB?5dla?5poz_przed?5@
CONST	SEGMENT
??_C@_0CB@LDKCMIJO@Koniec?5for?5loop?$CB?5dla?5poz_przed?5@ DB 'Koniec fo'
	DB	'r loop! dla poz_przed !', 00H		; `string'
CONST	ENDS
;	COMDAT ??_C@_0BC@MOHMHDPK@Wartosc?5min_przed@
CONST	SEGMENT
??_C@_0BC@MOHMHDPK@Wartosc?5min_przed@ DB 'Wartosc min_przed', 00H ; `string'
CONST	ENDS
;	COMDAT ??_C@_0CF@LJFGBPDA@Poczatek?5for?5loop?5przed?5znakiem@
CONST	SEGMENT
??_C@_0CF@LJFGBPDA@Poczatek?5for?5loop?5przed?5znakiem@ DB 'Poczatek for '
	DB	'loop przed znakiem nr: ', 00H		; `string'
CONST	ENDS
;	COMDAT ??_C@_0BO@JLEJEHLB@Koniec?5for?5loop?$CB?5dla?5poz_za?5?$CB@
CONST	SEGMENT
??_C@_0BO@JLEJEHLB@Koniec?5for?5loop?$CB?5dla?5poz_za?5?$CB@ DB 'Koniec f'
	DB	'or loop! dla poz_za !', 00H			; `string'
CONST	ENDS
;	COMDAT ??_C@_0BB@KCMABGGG@Wartosc?5min_za?3?5@
CONST	SEGMENT
??_C@_0BB@KCMABGGG@Wartosc?5min_za?3?5@ DB 'Wartosc min_za: ', 00H ; `string'
CONST	ENDS
;	COMDAT ??_C@_0CB@FLMHKFMH@Poczatek?5for?5loop?5za?5znakiem?5nr@
CONST	SEGMENT
??_C@_0CB@FLMHKFMH@Poczatek?5for?5loop?5za?5znakiem?5nr@ DB 'Poczatek for'
	DB	' loop za znakiem nr:', 00H			; `string'
CONST	ENDS
;	COMDAT ??_C@_01CLKCMJKC@?5@
CONST	SEGMENT
??_C@_01CLKCMJKC@?5@ DB ' ', 00H			; `string'
CONST	ENDS
;	COMDAT ??_C@_02NJPGOMH@?$CFf@
CONST	SEGMENT
??_C@_02NJPGOMH@?$CFf@ DB '%f', 00H			; `string'
CONST	ENDS
;	COMDAT ??_C@_0BL@PPHDABKE@stod?5argument?5out?5of?5range@
CONST	SEGMENT
??_C@_0BL@PPHDABKE@stod?5argument?5out?5of?5range@ DB 'stod argument out '
	DB	'of range', 00H				; `string'
CONST	ENDS
;	COMDAT ??_C@_0BG@LNNHAOEF@invalid?5stod?5argument@
CONST	SEGMENT
??_C@_0BG@LNNHAOEF@invalid?5stod?5argument@ DB 'invalid stod argument', 00H ; `string'
CONST	ENDS
;	COMDAT ??_C@_08EPJLHIJG@bad?5cast@
CONST	SEGMENT
??_C@_08EPJLHIJG@bad?5cast@ DB 'bad cast', 00H		; `string'
CONST	ENDS
;	COMDAT ??_C@_00CNPNBAHC@@
CONST	SEGMENT
??_C@_00CNPNBAHC@@ DB 00H				; `string'
CONST	ENDS
;	COMDAT ??_C@_0BA@JFNIOLAK@string?5too?5long@
CONST	SEGMENT
??_C@_0BA@JFNIOLAK@string?5too?5long@ DB 'string too long', 00H ; `string'
CONST	ENDS
;	COMDAT ??_C@_0BF@KINCDENJ@bad?5array?5new?5length@
CONST	SEGMENT
??_C@_0BF@KINCDENJ@bad?5array?5new?5length@ DB 'bad array new length', 00H ; `string'
CONST	ENDS
;	COMDAT ??_C@_0BC@EOODALEL@Unknown?5exception@
CONST	SEGMENT
??_C@_0BC@EOODALEL@Unknown?5exception@ DB 'Unknown exception', 00H ; `string'
PUBLIC	??$forward@AEAPEAV_Facet_base@std@@@std@@YAAEAPEAV_Facet_base@0@AEAPEAV10@@Z ; std::forward<std::_Facet_base * &>
PUBLIC	??$?0AEAPEAV_Facet_base@std@@@?$_Compressed_pair@U?$default_delete@V_Facet_base@std@@@std@@PEAV_Facet_base@2@$00@std@@QEAA@U_Zero_then_variadic_args_t@1@AEAPEAV_Facet_base@1@@Z ; std::_Compressed_pair<std::default_delete<std::_Facet_base>,std::_Facet_base *,1>::_Compressed_pair<std::default_delete<std::_Facet_base>,std::_Facet_base *,1><std::_Facet_base * &>
PUBLIC	??0_Sentry_base@?$basic_istream@DU?$char_traits@D@std@@@std@@QEAA@AEAV12@@Z ; std::basic_istream<char,std::char_traits<char> >::_Sentry_base::_Sentry_base
PUBLIC	??1_Sentry_base@?$basic_istream@DU?$char_traits@D@std@@@std@@QEAA@XZ ; std::basic_istream<char,std::char_traits<char> >::_Sentry_base::~_Sentry_base
PUBLIC	??0sentry@?$basic_istream@DU?$char_traits@D@std@@@std@@QEAA@AEAV12@_N@Z ; std::basic_istream<char,std::char_traits<char> >::sentry::sentry
PUBLIC	??Bsentry@?$basic_istream@DU?$char_traits@D@std@@@std@@QEBA_NXZ ; std::basic_istream<char,std::char_traits<char> >::sentry::operator bool
PUBLIC	??1sentry@?$basic_istream@DU?$char_traits@D@std@@@std@@QEAA@XZ ; std::basic_istream<char,std::char_traits<char> >::sentry::~sentry
PUBLIC	??$exchange@PEAV_Facet_base@std@@PEAV12@@std@@YAPEAV_Facet_base@0@AEAPEAV10@$$QEAPEAV10@@Z ; std::exchange<std::_Facet_base *,std::_Facet_base *>
PUBLIC	??$_Allocate_manually_vector_aligned@U_Default_allocate_traits@std@@@std@@YAPEAX_K@Z ; std::_Allocate_manually_vector_aligned<std::_Default_allocate_traits>
PUBLIC	??$forward@AEBV?$allocator@D@std@@@std@@YAAEBV?$allocator@D@0@AEBV10@@Z ; std::forward<std::allocator<char> const &>
PUBLIC	??$forward@AEBQEAD@std@@YAAEBQEADAEBQEAD@Z	; std::forward<char * const &>
PUBLIC	??$addressof@PEAD@std@@YAPEAPEADAEAPEAD@Z	; std::addressof<char *>
PUBLIC	??$forward@V?$allocator@D@std@@@std@@YA$$QEAV?$allocator@D@0@AEAV10@@Z ; std::forward<std::allocator<char> >
PUBLIC	??$move@AEAV?$basic_istream@DU?$char_traits@D@std@@@std@@@std@@YA$$QEAV?$basic_istream@DU?$char_traits@D@std@@@0@AEAV10@@Z ; std::move<std::basic_istream<char,std::char_traits<char> > &>
PUBLIC	??$_Insert_string@DU?$char_traits@D@std@@_K@std@@YAAEAV?$basic_ostream@DU?$char_traits@D@std@@@0@AEAV10@QEBD_K@Z ; std::_Insert_string<char,std::char_traits<char>,unsigned __int64>
PUBLIC	??$?0U?$default_delete@V_Facet_base@std@@@std@@$0A@@?$unique_ptr@V_Facet_base@std@@U?$default_delete@V_Facet_base@std@@@2@@std@@QEAA@PEAV_Facet_base@1@@Z ; std::unique_ptr<std::_Facet_base,std::default_delete<std::_Facet_base> >::unique_ptr<std::_Facet_base,std::default_delete<std::_Facet_base> ><std::default_delete<std::_Facet_base>,0>
PUBLIC	??$?5DU?$char_traits@D@std@@V?$allocator@D@1@@std@@YAAEAV?$basic_istream@DU?$char_traits@D@std@@@0@$$QEAV10@AEAV?$basic_string@DU?$char_traits@D@std@@V?$allocator@D@2@@0@@Z ; std::operator>><char,std::char_traits<char>,std::allocator<char> >
PUBLIC	??0_Bxty@?$_String_val@U?$_Simple_types@D@std@@@std@@QEAA@XZ ; std::_String_val<std::_Simple_types<char> >::_Bxty::_Bxty
PUBLIC	?_Calculate_growth@?$basic_string@DU?$char_traits@D@std@@V?$allocator@D@2@@std@@CA_K_K00@Z ; std::basic_string<char,std::char_traits<char>,std::allocator<char> >::_Calculate_growth
PUBLIC	??R?$default_delete@V_Facet_base@std@@@std@@QEBAXPEAV_Facet_base@1@@Z ; std::default_delete<std::_Facet_base>::operator()
PUBLIC	?_Get_first@?$_Compressed_pair@U?$default_delete@V_Facet_base@std@@@std@@PEAV_Facet_base@2@$00@std@@QEAAAEAU?$default_delete@V_Facet_base@std@@@2@XZ ; std::_Compressed_pair<std::default_delete<std::_Facet_base>,std::_Facet_base *,1>::_Get_first
PUBLIC	?find@?$_Narrow_char_traits@DH@std@@SAPEBDQEBD_KAEBD@Z ; std::_Narrow_char_traits<char,int>::find
PUBLIC	?eq@?$_Narrow_char_traits@DH@std@@SA_NAEBD0@Z	; std::_Narrow_char_traits<char,int>::eq
PUBLIC	??0?$allocator@D@std@@QEAA@XZ			; std::allocator<char>::allocator<char>
PUBLIC	??0?$_String_val@U?$_Simple_types@D@std@@@std@@QEAA@XZ ; std::_String_val<std::_Simple_types<char> >::_String_val<std::_Simple_types<char> >
PUBLIC	?data@?$basic_string@DU?$char_traits@D@std@@V?$allocator@D@2@@std@@QEBAPEBDXZ ; std::basic_string<char,std::char_traits<char>,std::allocator<char> >::data
PUBLIC	?_Calculate_growth@?$basic_string@DU?$char_traits@D@std@@V?$allocator@D@2@@std@@AEBA_K_K@Z ; std::basic_string<char,std::char_traits<char>,std::allocator<char> >::_Calculate_growth
PUBLIC	??1?$unique_ptr@V_Facet_base@std@@U?$default_delete@V_Facet_base@std@@@2@@std@@QEAA@XZ ; std::unique_ptr<std::_Facet_base,std::default_delete<std::_Facet_base> >::~unique_ptr<std::_Facet_base,std::default_delete<std::_Facet_base> >
PUBLIC	?release@?$unique_ptr@V_Facet_base@std@@U?$default_delete@V_Facet_base@std@@@2@@std@@QEAAPEAV_Facet_base@2@XZ ; std::unique_ptr<std::_Facet_base,std::default_delete<std::_Facet_base> >::release
PUBLIC	?__autoclassinit2@?$unique_ptr@V_Facet_base@std@@U?$default_delete@V_Facet_base@std@@@2@@std@@QEAAX_K@Z ; std::unique_ptr<std::_Facet_base,std::default_delete<std::_Facet_base> >::__autoclassinit2
PUBLIC	??$_Allocate@$0BA@U_Default_allocate_traits@std@@$0A@@std@@YAPEAX_K@Z ; std::_Allocate<16,std::_Default_allocate_traits,0>
PUBLIC	??$_Get_size_of_n@$00@std@@YA_K_K@Z		; std::_Get_size_of_n<1>
PUBLIC	??$addressof@$$CBV?$_String_val@U?$_Simple_types@D@std@@@std@@@std@@YAPEBV?$_String_val@U?$_Simple_types@D@std@@@0@AEBV10@@Z ; std::addressof<std::_String_val<std::_Simple_types<char> > const >
PUBLIC	??$addressof@V?$_String_val@U?$_Simple_types@D@std@@@std@@@std@@YAPEAV?$_String_val@U?$_Simple_types@D@std@@@0@AEAV10@@Z ; std::addressof<std::_String_val<std::_Simple_types<char> > >
PUBLIC	??$_Deallocate@$0BA@$0A@@std@@YAXPEAX_K@Z	; std::_Deallocate<16,0>
PUBLIC	??$?0AEBV?$allocator@D@std@@$$V@?$_Compressed_pair@V?$allocator@D@std@@V?$_String_val@U?$_Simple_types@D@std@@@2@$00@std@@QEAA@U_One_then_variadic_args_t@1@AEBV?$allocator@D@1@@Z ; std::_Compressed_pair<std::allocator<char>,std::_String_val<std::_Simple_types<char> >,1>::_Compressed_pair<std::allocator<char>,std::_String_val<std::_Simple_types<char> >,1><std::allocator<char> const &>
PUBLIC	??$_Pocma@V?$allocator@D@std@@@std@@YAXAEAV?$allocator@D@0@0@Z ; std::_Pocma<std::allocator<char> >
PUBLIC	??$_Unfancy@D@std@@YAPEADPEAD@Z			; std::_Unfancy<char>
PUBLIC	??$_Construct_in_place@PEADAEBQEAD@std@@YAXAEAPEADAEBQEAD@Z ; std::_Construct_in_place<char *,char * const &>
PUBLIC	??$_Pocca@V?$allocator@D@std@@@std@@YAXAEAV?$allocator@D@0@AEBV10@@Z ; std::_Pocca<std::allocator<char> >
PUBLIC	??$_Reallocate_for@V<lambda_66f57f934f28d61049862f64df852ff0>@@PEBD@?$basic_string@DU?$char_traits@D@std@@V?$allocator@D@2@@std@@AEAAAEAV01@_KV<lambda_66f57f934f28d61049862f64df852ff0>@@PEBD@Z ; std::basic_string<char,std::char_traits<char>,std::allocator<char> >::_Reallocate_for<<lambda_66f57f934f28d61049862f64df852ff0>,char const *>
PUBLIC	??$_Reallocate_for@V<lambda_138c3d7c38c85abb84c7fc7bfe5747b7>@@D@?$basic_string@DU?$char_traits@D@std@@V?$allocator@D@2@@std@@AEAAAEAV01@_KV<lambda_138c3d7c38c85abb84c7fc7bfe5747b7>@@D@Z ; std::basic_string<char,std::char_traits<char>,std::allocator<char> >::_Reallocate_for<<lambda_138c3d7c38c85abb84c7fc7bfe5747b7>,char>
PUBLIC	??$_Reallocate_grow_by@V<lambda_16d2cb92461ac9818af78a76c749bd7f>@@_K_KPEBD_K@?$basic_string@DU?$char_traits@D@std@@V?$allocator@D@2@@std@@AEAAAEAV01@_KV<lambda_16d2cb92461ac9818af78a76c749bd7f>@@_K2PEBD2@Z ; std::basic_string<char,std::char_traits<char>,std::allocator<char> >::_Reallocate_grow_by<<lambda_16d2cb92461ac9818af78a76c749bd7f>,unsigned __int64,unsigned __int64,char const *,unsigned __int64>
PUBLIC	??$_Reallocate_grow_by@V<lambda_319d5e083f45f90dcdce5dce53cbb275>@@D@?$basic_string@DU?$char_traits@D@std@@V?$allocator@D@2@@std@@AEAAAEAV01@_KV<lambda_319d5e083f45f90dcdce5dce53cbb275>@@D@Z ; std::basic_string<char,std::char_traits<char>,std::allocator<char> >::_Reallocate_grow_by<<lambda_319d5e083f45f90dcdce5dce53cbb275>,char>
PUBLIC	??$_Destroy_in_place@PEAD@std@@YAXAEAPEAD@Z	; std::_Destroy_in_place<char *>
PUBLIC	??$?0$$V@?$_Compressed_pair@V?$allocator@D@std@@V?$_String_val@U?$_Simple_types@D@std@@@2@$00@std@@QEAA@U_Zero_then_variadic_args_t@1@@Z ; std::_Compressed_pair<std::allocator<char>,std::_String_val<std::_Simple_types<char> >,1>::_Compressed_pair<std::allocator<char>,std::_String_val<std::_Simple_types<char> >,1><>
PUBLIC	??$?0V?$allocator@D@std@@$$V@?$_Compressed_pair@V?$allocator@D@std@@V?$_String_val@U?$_Simple_types@D@std@@@2@$00@std@@QEAA@U_One_then_variadic_args_t@1@$$QEAV?$allocator@D@1@@Z ; std::_Compressed_pair<std::allocator<char>,std::_String_val<std::_Simple_types<char> >,1>::_Compressed_pair<std::allocator<char>,std::_String_val<std::_Simple_types<char> >,1><std::allocator<char> >
PUBLIC	??$move@AEAV?$allocator@D@std@@@std@@YA$$QEAV?$allocator@D@0@AEAV10@@Z ; std::move<std::allocator<char> &>
PUBLIC	??$addressof@V?$basic_string@DU?$char_traits@D@std@@V?$allocator@D@2@@std@@@std@@YAPEAV?$basic_string@DU?$char_traits@D@std@@V?$allocator@D@2@@0@AEAV10@@Z ; std::addressof<std::basic_string<char,std::char_traits<char>,std::allocator<char> > >
PUBLIC	??$addressof@$$CBV?$basic_string@DU?$char_traits@D@std@@V?$allocator@D@2@@std@@@std@@YAPEBV?$basic_string@DU?$char_traits@D@std@@V?$allocator@D@2@@0@AEBV10@@Z ; std::addressof<std::basic_string<char,std::char_traits<char>,std::allocator<char> > const >
PUBLIC	??$_Traits_find_ch@U?$char_traits@D@std@@@std@@YA_KQEBD_K1D@Z ; std::_Traits_find_ch<std::char_traits<char> >
PUBLIC	??$_Traits_rfind_ch@U?$char_traits@D@std@@@std@@YA_KQEBD_K1D@Z ; std::_Traits_rfind_ch<std::char_traits<char> >
PUBLIC	??$min@_K@std@@YAAEB_KAEB_K0@Z			; std::min<unsigned __int64>
PUBLIC	??$?6DU?$char_traits@D@std@@_J@std@@YAAEAV?$basic_ostream@DU?$char_traits@D@std@@@0@AEAV10@AEBU?$_Smanip@_J@0@@Z ; std::operator<<<char,std::char_traits<char>,__int64>
PUBLIC	??$?5DU?$char_traits@D@std@@V?$allocator@D@1@@std@@YAAEAV?$basic_istream@DU?$char_traits@D@std@@@0@AEAV10@AEAV?$basic_string@DU?$char_traits@D@std@@V?$allocator@D@2@@0@@Z ; std::operator>><char,std::char_traits<char>,std::allocator<char> >
PUBLIC	??$endl@DU?$char_traits@D@std@@@std@@YAAEAV?$basic_ostream@DU?$char_traits@D@std@@@0@AEAV10@@Z ; std::endl<char,std::char_traits<char> >
PUBLIC	??$?6DU?$char_traits@D@std@@V?$allocator@D@1@@std@@YAAEAV?$basic_ostream@DU?$char_traits@D@std@@@0@AEAV10@AEBV?$basic_string@DU?$char_traits@D@std@@V?$allocator@D@2@@0@@Z ; std::operator<<<char,std::char_traits<char>,std::allocator<char> >
PUBLIC	??$?6U?$char_traits@D@std@@@std@@YAAEAV?$basic_ostream@DU?$char_traits@D@std@@@0@AEAV10@PEBD@Z ; std::operator<<<std::char_traits<char> >
PUBLIC	??$?6U?$char_traits@D@std@@@std@@YAAEAV?$basic_ostream@DU?$char_traits@D@std@@@0@AEAV10@D@Z ; std::operator<<<std::char_traits<char> >
PUBLIC	??$use_facet@V?$ctype@D@std@@@std@@YAAEBV?$ctype@D@0@AEBVlocale@0@@Z ; std::use_facet<std::ctype<char> >
PUBLIC	?max_size@?$_Default_allocator_traits@V?$allocator@D@std@@@std@@SA_KAEBV?$allocator@D@2@@Z ; std::_Default_allocator_traits<std::allocator<char> >::max_size
PUBLIC	?assign@?$_Narrow_char_traits@DH@std@@SAPEADQEAD_KD@Z ; std::_Narrow_char_traits<char,int>::assign
PUBLIC	?assign@?$_Narrow_char_traits@DH@std@@SAXAEADAEBD@Z ; std::_Narrow_char_traits<char,int>::assign
PUBLIC	?deallocate@?$allocator@D@std@@QEAAXQEAD_K@Z	; std::allocator<char>::deallocate
PUBLIC	?allocate@?$allocator@D@std@@QEAAPEAD_K@Z	; std::allocator<char>::allocate
PUBLIC	?_Large_string_engaged@?$_String_val@U?$_Simple_types@D@std@@@std@@QEBA_NXZ ; std::_String_val<std::_Simple_types<char> >::_Large_string_engaged
PUBLIC	?_Xran@?$_String_val@U?$_Simple_types@D@std@@@std@@SAXXZ ; std::_String_val<std::_Simple_types<char> >::_Xran
PUBLIC	?_Memcpy_val_from@?$basic_string@DU?$char_traits@D@std@@V?$allocator@D@2@@std@@AEAAXAEBV12@@Z ; std::basic_string<char,std::char_traits<char>,std::allocator<char> >::_Memcpy_val_from
PUBLIC	?assign@?$basic_string@DU?$char_traits@D@std@@V?$allocator@D@2@@std@@QEAAAEAV12@AEBV12@_K_K@Z ; std::basic_string<char,std::char_traits<char>,std::allocator<char> >::assign
PUBLIC	?erase@?$basic_string@DU?$char_traits@D@std@@V?$allocator@D@2@@std@@QEAAAEAV12@_K@Z ; std::basic_string<char,std::char_traits<char>,std::allocator<char> >::erase
PUBLIC	?max_size@?$basic_string@DU?$char_traits@D@std@@V?$allocator@D@2@@std@@QEBA_KXZ ; std::basic_string<char,std::char_traits<char>,std::allocator<char> >::max_size
PUBLIC	?_Get_first@?$_Compressed_pair@V?$allocator@D@std@@V?$_String_val@U?$_Simple_types@D@std@@@2@$00@std@@QEAAAEAV?$allocator@D@2@XZ ; std::_Compressed_pair<std::allocator<char>,std::_String_val<std::_Simple_types<char> >,1>::_Get_first
PUBLIC	?_Get_first@?$_Compressed_pair@V?$allocator@D@std@@V?$_String_val@U?$_Simple_types@D@std@@@2@$00@std@@QEBAAEBV?$allocator@D@2@XZ ; std::_Compressed_pair<std::allocator<char>,std::_String_val<std::_Simple_types<char> >,1>::_Get_first
PUBLIC	??$max@_K@std@@YAAEB_KAEB_K0@Z			; std::max<unsigned __int64>
PUBLIC	??0_Sentry_base@?$basic_ostream@DU?$char_traits@D@std@@@std@@QEAA@AEAV12@@Z ; std::basic_ostream<char,std::char_traits<char> >::_Sentry_base::_Sentry_base
PUBLIC	??1_Sentry_base@?$basic_ostream@DU?$char_traits@D@std@@@std@@QEAA@XZ ; std::basic_ostream<char,std::char_traits<char> >::_Sentry_base::~_Sentry_base
PUBLIC	?length@?$_Narrow_char_traits@DH@std@@SA_KQEBD@Z ; std::_Narrow_char_traits<char,int>::length
PUBLIC	?copy@?$_Narrow_char_traits@DH@std@@SAPEADQEADQEBD_K@Z ; std::_Narrow_char_traits<char,int>::copy
PUBLIC	?move@?$_Narrow_char_traits@DH@std@@SAPEADQEADQEBD_K@Z ; std::_Narrow_char_traits<char,int>::move
PUBLIC	?to_char_type@?$_Narrow_char_traits@DH@std@@SADAEBH@Z ; std::_Narrow_char_traits<char,int>::to_char_type
PUBLIC	?eq_int_type@?$_Narrow_char_traits@DH@std@@SA_NAEBH0@Z ; std::_Narrow_char_traits<char,int>::eq_int_type
PUBLIC	?eof@?$_Narrow_char_traits@DH@std@@SAHXZ	; std::_Narrow_char_traits<char,int>::eof
PUBLIC	?select_on_container_copy_construction@?$_Default_allocator_traits@V?$allocator@D@std@@@std@@SA?AV?$allocator@D@2@AEBV32@@Z ; std::_Default_allocator_traits<std::allocator<char> >::select_on_container_copy_construction
PUBLIC	?_Myptr@?$_String_val@U?$_Simple_types@D@std@@@std@@QEAAPEADXZ ; std::_String_val<std::_Simple_types<char> >::_Myptr
PUBLIC	?_Myptr@?$_String_val@U?$_Simple_types@D@std@@@std@@QEBAPEBDXZ ; std::_String_val<std::_Simple_types<char> >::_Myptr
PUBLIC	?_Check_offset@?$_String_val@U?$_Simple_types@D@std@@@std@@QEBAX_K@Z ; std::_String_val<std::_Simple_types<char> >::_Check_offset
PUBLIC	?_Clamp_suffix_size@?$_String_val@U?$_Simple_types@D@std@@@std@@QEBA_K_K0@Z ; std::_String_val<std::_Simple_types<char> >::_Clamp_suffix_size
PUBLIC	??1_Bxty@?$_String_val@U?$_Simple_types@D@std@@@std@@QEAA@XZ ; std::_String_val<std::_Simple_types<char> >::_Bxty::~_Bxty
PUBLIC	??0?$basic_string@DU?$char_traits@D@std@@V?$allocator@D@2@@std@@QEAA@AEBV01@_K1AEBV?$allocator@D@1@@Z ; std::basic_string<char,std::char_traits<char>,std::allocator<char> >::basic_string<char,std::char_traits<char>,std::allocator<char> >
PUBLIC	?_Move_assign@?$basic_string@DU?$char_traits@D@std@@V?$allocator@D@2@@std@@AEAAXAEAV12@U_Equal_allocators@2@@Z ; std::basic_string<char,std::char_traits<char>,std::allocator<char> >::_Move_assign
PUBLIC	?_Take_contents@?$basic_string@DU?$char_traits@D@std@@V?$allocator@D@2@@std@@AEAAXAEAV12@U?$integral_constant@_N$00@2@@Z ; std::basic_string<char,std::char_traits<char>,std::allocator<char> >::_Take_contents
PUBLIC	?_Construct_lv_contents@?$basic_string@DU?$char_traits@D@std@@V?$allocator@D@2@@std@@AEAAXAEBV12@@Z ; std::basic_string<char,std::char_traits<char>,std::allocator<char> >::_Construct_lv_contents
PUBLIC	?_Copy_assign@?$basic_string@DU?$char_traits@D@std@@V?$allocator@D@2@@std@@AEAAXAEBV12@U?$integral_constant@_N$0A@@2@@Z ; std::basic_string<char,std::char_traits<char>,std::allocator<char> >::_Copy_assign
PUBLIC	??R<lambda_66f57f934f28d61049862f64df852ff0>@@QEBAXQEAD_KQEBD@Z ; <lambda_66f57f934f28d61049862f64df852ff0>::operator()
PUBLIC	?assign@?$basic_string@DU?$char_traits@D@std@@V?$allocator@D@2@@std@@QEAAAEAV12@QEBD_K@Z ; std::basic_string<char,std::char_traits<char>,std::allocator<char> >::assign
PUBLIC	?assign@?$basic_string@DU?$char_traits@D@std@@V?$allocator@D@2@@std@@QEAAAEAV12@QEBD@Z ; std::basic_string<char,std::char_traits<char>,std::allocator<char> >::assign
PUBLIC	??R<lambda_138c3d7c38c85abb84c7fc7bfe5747b7>@@QEBAXQEAD_KD@Z ; <lambda_138c3d7c38c85abb84c7fc7bfe5747b7>::operator()
PUBLIC	?assign@?$basic_string@DU?$char_traits@D@std@@V?$allocator@D@2@@std@@QEAAAEAV12@_KD@Z ; std::basic_string<char,std::char_traits<char>,std::allocator<char> >::assign
PUBLIC	??R<lambda_16d2cb92461ac9818af78a76c749bd7f>@@QEBAXQEADQEBD_K2212@Z ; <lambda_16d2cb92461ac9818af78a76c749bd7f>::operator()
PUBLIC	?replace@?$basic_string@DU?$char_traits@D@std@@V?$allocator@D@2@@std@@QEAAAEAV12@_K_KQEBD0@Z ; std::basic_string<char,std::char_traits<char>,std::allocator<char> >::replace
PUBLIC	??R<lambda_319d5e083f45f90dcdce5dce53cbb275>@@QEBAXQEADQEBD_KD@Z ; <lambda_319d5e083f45f90dcdce5dce53cbb275>::operator()
PUBLIC	?push_back@?$basic_string@DU?$char_traits@D@std@@V?$allocator@D@2@@std@@QEAAXD@Z ; std::basic_string<char,std::char_traits<char>,std::allocator<char> >::push_back
PUBLIC	?size@?$basic_string@DU?$char_traits@D@std@@V?$allocator@D@2@@std@@QEBA_KXZ ; std::basic_string<char,std::char_traits<char>,std::allocator<char> >::size
PUBLIC	?get_allocator@?$basic_string@DU?$char_traits@D@std@@V?$allocator@D@2@@std@@QEBA?AV?$allocator@D@2@XZ ; std::basic_string<char,std::char_traits<char>,std::allocator<char> >::get_allocator
PUBLIC	?_Eos@?$basic_string@DU?$char_traits@D@std@@V?$allocator@D@2@@std@@AEAAX_K@Z ; std::basic_string<char,std::char_traits<char>,std::allocator<char> >::_Eos
PUBLIC	?_Tidy_init@?$basic_string@DU?$char_traits@D@std@@V?$allocator@D@2@@std@@AEAAXXZ ; std::basic_string<char,std::char_traits<char>,std::allocator<char> >::_Tidy_init
PUBLIC	?_Tidy_deallocate@?$basic_string@DU?$char_traits@D@std@@V?$allocator@D@2@@std@@AEAAXXZ ; std::basic_string<char,std::char_traits<char>,std::allocator<char> >::_Tidy_deallocate
PUBLIC	?_Getal@?$basic_string@DU?$char_traits@D@std@@V?$allocator@D@2@@std@@AEAAAEAV?$allocator@D@2@XZ ; std::basic_string<char,std::char_traits<char>,std::allocator<char> >::_Getal
PUBLIC	?_Getal@?$basic_string@DU?$char_traits@D@std@@V?$allocator@D@2@@std@@AEBAAEBV?$allocator@D@2@XZ ; std::basic_string<char,std::char_traits<char>,std::allocator<char> >::_Getal
PUBLIC	??0sentry@?$basic_ostream@DU?$char_traits@D@std@@@std@@QEAA@AEAV12@@Z ; std::basic_ostream<char,std::char_traits<char> >::sentry::sentry
PUBLIC	??1sentry@?$basic_ostream@DU?$char_traits@D@std@@@std@@QEAA@XZ ; std::basic_ostream<char,std::char_traits<char> >::sentry::~sentry
PUBLIC	??Bsentry@?$basic_ostream@DU?$char_traits@D@std@@@std@@QEBA_NXZ ; std::basic_ostream<char,std::char_traits<char> >::sentry::operator bool
PUBLIC	??1?$_String_val@U?$_Simple_types@D@std@@@std@@QEAA@XZ ; std::_String_val<std::_Simple_types<char> >::~_String_val<std::_Simple_types<char> >
PUBLIC	??1?$_Compressed_pair@V?$allocator@D@std@@V?$_String_val@U?$_Simple_types@D@std@@@2@$00@std@@QEAA@XZ ; std::_Compressed_pair<std::allocator<char>,std::_String_val<std::_Simple_types<char> >,1>::~_Compressed_pair<std::allocator<char>,std::_String_val<std::_Simple_types<char> >,1>
PUBLIC	??0?$basic_string@DU?$char_traits@D@std@@V?$allocator@D@2@@std@@QEAA@AEBV01@@Z ; std::basic_string<char,std::char_traits<char>,std::allocator<char> >::basic_string<char,std::char_traits<char>,std::allocator<char> >
PUBLIC	??0?$basic_string@DU?$char_traits@D@std@@V?$allocator@D@2@@std@@QEAA@XZ ; std::basic_string<char,std::char_traits<char>,std::allocator<char> >::basic_string<char,std::char_traits<char>,std::allocator<char> >
PUBLIC	??0?$basic_string@DU?$char_traits@D@std@@V?$allocator@D@2@@std@@QEAA@QEBD@Z ; std::basic_string<char,std::char_traits<char>,std::allocator<char> >::basic_string<char,std::char_traits<char>,std::allocator<char> >
PUBLIC	??0?$basic_string@DU?$char_traits@D@std@@V?$allocator@D@2@@std@@QEAA@_KD@Z ; std::basic_string<char,std::char_traits<char>,std::allocator<char> >::basic_string<char,std::char_traits<char>,std::allocator<char> >
PUBLIC	??0?$basic_string@DU?$char_traits@D@std@@V?$allocator@D@2@@std@@QEAA@$$QEAV01@@Z ; std::basic_string<char,std::char_traits<char>,std::allocator<char> >::basic_string<char,std::char_traits<char>,std::allocator<char> >
PUBLIC	??4?$basic_string@DU?$char_traits@D@std@@V?$allocator@D@2@@std@@QEAAAEAV01@$$QEAV01@@Z ; std::basic_string<char,std::char_traits<char>,std::allocator<char> >::operator=
PUBLIC	??1?$basic_string@DU?$char_traits@D@std@@V?$allocator@D@2@@std@@QEAA@XZ ; std::basic_string<char,std::char_traits<char>,std::allocator<char> >::~basic_string<char,std::char_traits<char>,std::allocator<char> >
PUBLIC	??4?$basic_string@DU?$char_traits@D@std@@V?$allocator@D@2@@std@@QEAAAEAV01@AEBV01@@Z ; std::basic_string<char,std::char_traits<char>,std::allocator<char> >::operator=
PUBLIC	?erase@?$basic_string@DU?$char_traits@D@std@@V?$allocator@D@2@@std@@QEAAAEAV12@_K_K@Z ; std::basic_string<char,std::char_traits<char>,std::allocator<char> >::erase
PUBLIC	?clear@?$basic_string@DU?$char_traits@D@std@@V?$allocator@D@2@@std@@QEAAXXZ ; std::basic_string<char,std::char_traits<char>,std::allocator<char> >::clear
PUBLIC	?replace@?$basic_string@DU?$char_traits@D@std@@V?$allocator@D@2@@std@@QEAAAEAV12@_K0AEBV12@@Z ; std::basic_string<char,std::char_traits<char>,std::allocator<char> >::replace
PUBLIC	??A?$basic_string@DU?$char_traits@D@std@@V?$allocator@D@2@@std@@QEAAAEAD_K@Z ; std::basic_string<char,std::char_traits<char>,std::allocator<char> >::operator[]
PUBLIC	?front@?$basic_string@DU?$char_traits@D@std@@V?$allocator@D@2@@std@@QEAAAEADXZ ; std::basic_string<char,std::char_traits<char>,std::allocator<char> >::front
PUBLIC	?c_str@?$basic_string@DU?$char_traits@D@std@@V?$allocator@D@2@@std@@QEBAPEBDXZ ; std::basic_string<char,std::char_traits<char>,std::allocator<char> >::c_str
PUBLIC	?length@?$basic_string@DU?$char_traits@D@std@@V?$allocator@D@2@@std@@QEBA_KXZ ; std::basic_string<char,std::char_traits<char>,std::allocator<char> >::length
PUBLIC	?find@?$basic_string@DU?$char_traits@D@std@@V?$allocator@D@2@@std@@QEBA_KD_K@Z ; std::basic_string<char,std::char_traits<char>,std::allocator<char> >::find
PUBLIC	?find_first_of@?$basic_string@DU?$char_traits@D@std@@V?$allocator@D@2@@std@@QEBA_KD_K@Z ; std::basic_string<char,std::char_traits<char>,std::allocator<char> >::find_first_of
PUBLIC	?find_last_of@?$basic_string@DU?$char_traits@D@std@@V?$allocator@D@2@@std@@QEBA_KD_K@Z ; std::basic_string<char,std::char_traits<char>,std::allocator<char> >::find_last_of
PUBLIC	?substr@?$basic_string@DU?$char_traits@D@std@@V?$allocator@D@2@@std@@QEBA?AV12@_K0@Z ; std::basic_string<char,std::char_traits<char>,std::allocator<char> >::substr
PUBLIC	?petla_przed@@YA_JV?$basic_string@DU?$char_traits@D@std@@V?$allocator@D@2@@std@@FF@Z ; petla_przed
PUBLIC	?petla_za@@YA_JV?$basic_string@DU?$char_traits@D@std@@V?$allocator@D@2@@std@@FF@Z ; petla_za
PUBLIC	?znak_przed@@YA_NV?$basic_string@DU?$char_traits@D@std@@V?$allocator@D@2@@std@@@Z ; znak_przed
PUBLIC	?znaki_niedozwolone@@YA_NV?$basic_string@DU?$char_traits@D@std@@V?$allocator@D@2@@std@@@Z ; znaki_niedozwolone
PUBLIC	?znak_jaki_log@@YAXHH@Z				; znak_jaki_log
PUBLIC	?lo@@YAXNF@Z					; lo
PUBLIC	?log@@YAXV?$basic_string@DU?$char_traits@D@std@@V?$allocator@D@2@@std@@HH@Z ; log
PUBLIC	?to_string@std@@YA?AV?$basic_string@DU?$char_traits@D@std@@V?$allocator@D@2@@1@N@Z ; std::to_string
PUBLIC	?stod@std@@YANAEBV?$basic_string@DU?$char_traits@D@std@@V?$allocator@D@2@@1@PEA_K@Z ; std::stod
PUBLIC	?_Getfacet@locale@std@@QEBAPEBVfacet@12@_K@Z	; std::locale::_Getfacet
PUBLIC	??1locale@std@@QEAA@XZ				; std::locale::~locale
PUBLIC	??0bad_cast@std@@QEAA@AEBV01@@Z			; std::bad_cast::bad_cast
PUBLIC	?_Throw_bad_cast@std@@YAXXZ			; std::_Throw_bad_cast
PUBLIC	??1bad_cast@std@@UEAA@XZ			; std::bad_cast::~bad_cast
PUBLIC	??_Gbad_cast@std@@UEAAPEAXI@Z			; std::bad_cast::`scalar deleting destructor'
PUBLIC	??0bad_cast@std@@QEAA@XZ			; std::bad_cast::bad_cast
PUBLIC	?_Xlen_string@std@@YAXXZ			; std::_Xlen_string
PUBLIC	?_Release@_Fake_proxy_ptr_impl@std@@QEAAXXZ	; std::_Fake_proxy_ptr_impl::_Release
PUBLIC	??0_Fake_proxy_ptr_impl@std@@QEAA@AEBU_Fake_allocator@1@AEBU_Container_base0@1@@Z ; std::_Fake_proxy_ptr_impl::_Fake_proxy_ptr_impl
PUBLIC	?_Alloc_proxy@_Container_base0@std@@QEAAXAEBU_Fake_allocator@2@@Z ; std::_Container_base0::_Alloc_proxy
PUBLIC	?_Orphan_all@_Container_base0@std@@QEAAXXZ	; std::_Container_base0::_Orphan_all
PUBLIC	??$_Convert_size@_K@std@@YA_K_K@Z		; std::_Convert_size<unsigned __int64>
PUBLIC	?_Adjust_manually_vector_aligned@std@@YAXAEAPEAXAEA_K@Z ; std::_Adjust_manually_vector_aligned
PUBLIC	?_Allocate@_Default_allocate_traits@std@@SAPEAX_K@Z ; std::_Default_allocate_traits::_Allocate
PUBLIC	?max@?$numeric_limits@_J@std@@SA_JXZ		; std::numeric_limits<__int64>::max
PUBLIC	??0bad_alloc@std@@QEAA@AEBV01@@Z		; std::bad_alloc::bad_alloc
PUBLIC	??0bad_array_new_length@std@@QEAA@AEBV01@@Z	; std::bad_array_new_length::bad_array_new_length
PUBLIC	?_Throw_bad_array_new_length@std@@YAXXZ		; std::_Throw_bad_array_new_length
PUBLIC	??1bad_array_new_length@std@@UEAA@XZ		; std::bad_array_new_length::~bad_array_new_length
PUBLIC	??_Gbad_array_new_length@std@@UEAAPEAXI@Z	; std::bad_array_new_length::`scalar deleting destructor'
PUBLIC	??0bad_array_new_length@std@@QEAA@XZ		; std::bad_array_new_length::bad_array_new_length
PUBLIC	??1bad_alloc@std@@UEAA@XZ			; std::bad_alloc::~bad_alloc
PUBLIC	??_Gbad_alloc@std@@UEAAPEAXI@Z			; std::bad_alloc::`scalar deleting destructor'
PUBLIC	??0bad_alloc@std@@AEAA@QEBD@Z			; std::bad_alloc::bad_alloc
PUBLIC	??_Gexception@std@@UEAAPEAXI@Z			; std::exception::`scalar deleting destructor'
PUBLIC	?what@exception@std@@UEBAPEBDXZ			; std::exception::what
PUBLIC	??1exception@std@@UEAA@XZ			; std::exception::~exception
PUBLIC	??0exception@std@@QEAA@AEBV01@@Z		; std::exception::exception
PUBLIC	??0exception@std@@QEAA@QEBDH@Z			; std::exception::exception
PUBLIC	_scprintf
PUBLIC	sprintf_s
PUBLIC	_vscprintf_l
PUBLIC	_vsprintf_s_l
PUBLIC	__local_stdio_printf_options
PUBLIC	??2@YAPEAX_KPEAX@Z				; operator new
PUBLIC	?interpreter@@YAXH@Z				; interpreter
EXTRN	??_Ebad_cast@std@@UEAAPEAXI@Z:PROC		; std::bad_cast::`vector deleting destructor'
EXTRN	??_Eexception@std@@UEAAPEAXI@Z:PROC		; std::exception::`vector deleting destructor'
EXTRN	??_Ebad_alloc@std@@UEAAPEAXI@Z:PROC		; std::bad_alloc::`vector deleting destructor'
EXTRN	??_Ebad_array_new_length@std@@UEAAPEAXI@Z:PROC	; std::bad_array_new_length::`vector deleting destructor'
EXTRN	??1_Lockit@std@@QEAA@XZ:PROC			; std::_Lockit::~_Lockit
EXTRN	__CxxFrameHandler4:PROC
EXTRN	__std_terminate:PROC
;	COMDAT pdata
pdata	SEGMENT
$pdata$??0_Sentry_base@?$basic_istream@DU?$char_traits@D@std@@@std@@QEAA@AEAV12@@Z DD imagerel $LN8@Sentry_bas
	DD	imagerel $LN8@Sentry_bas+44
	DD	imagerel $unwind$??0_Sentry_base@?$basic_istream@DU?$char_traits@D@std@@@std@@QEAA@AEAV12@@Z
pdata	ENDS
;	COMDAT pdata
pdata	SEGMENT
$pdata$??1_Sentry_base@?$basic_istream@DU?$char_traits@D@std@@@std@@QEAA@XZ DD imagerel $LN8@Sentry_bas
	DD	imagerel $LN8@Sentry_bas+36
	DD	imagerel $unwind$??1_Sentry_base@?$basic_istream@DU?$char_traits@D@std@@@std@@QEAA@XZ
pdata	ENDS
;	COMDAT pdata
pdata	SEGMENT
$pdata$??0sentry@?$basic_istream@DU?$char_traits@D@std@@@std@@QEAA@AEAV12@_N@Z DD imagerel $LN11@sentry
	DD	imagerel $LN11@sentry+63
	DD	imagerel $unwind$??0sentry@?$basic_istream@DU?$char_traits@D@std@@@std@@QEAA@AEAV12@_N@Z
pdata	ENDS
;	COMDAT pdata
pdata	SEGMENT
$pdata$??1sentry@?$basic_istream@DU?$char_traits@D@std@@@std@@QEAA@XZ DD imagerel $LN12@sentry
	DD	imagerel $LN12@sentry+36
	DD	imagerel $unwind$??1sentry@?$basic_istream@DU?$char_traits@D@std@@@std@@QEAA@XZ
pdata	ENDS
;	COMDAT pdata
pdata	SEGMENT
$pdata$??$_Allocate_manually_vector_aligned@U_Default_allocate_traits@std@@@std@@YAPEAX_K@Z DD imagerel $LN17@Allocate_m
	DD	imagerel $LN17@Allocate_m+59
	DD	imagerel $unwind$??$_Allocate_manually_vector_aligned@U_Default_allocate_traits@std@@@std@@YAPEAX_K@Z
pdata	ENDS
;	COMDAT pdata
pdata	SEGMENT
$pdata$??$_Insert_string@DU?$char_traits@D@std@@_K@std@@YAAEAV?$basic_ostream@DU?$char_traits@D@std@@@0@AEAV10@QEBD_K@Z DD imagerel $LN99@Insert_str
	DD	imagerel $LN99@Insert_str+447
	DD	imagerel $unwind$??$_Insert_string@DU?$char_traits@D@std@@_K@std@@YAAEAV?$basic_ostream@DU?$char_traits@D@std@@@0@AEAV10@QEBD_K@Z
pdata	ENDS
;	COMDAT pdata
pdata	SEGMENT
$pdata$?catch$4@?0???$_Insert_string@DU?$char_traits@D@std@@_K@std@@YAAEAV?$basic_ostream@DU?$char_traits@D@std@@@0@AEAV10@QEBD_K@Z@4HA DD imagerel ?catch$4@?0???$_Insert_string@DU?$char_traits@D@std@@_K@std@@YAAEAV?$basic_ostream@DU?$char_traits@D@std@@@0@AEAV10@QEBD_K@Z@4HA
	DD	imagerel ?catch$4@?0???$_Insert_string@DU?$char_traits@D@std@@_K@std@@YAAEAV?$basic_ostream@DU?$char_traits@D@std@@@0@AEAV10@QEBD_K@Z@4HA+59
	DD	imagerel $unwind$?catch$4@?0???$_Insert_string@DU?$char_traits@D@std@@_K@std@@YAAEAV?$basic_ostream@DU?$char_traits@D@std@@@0@AEAV10@QEBD_K@Z@4HA
pdata	ENDS
;	COMDAT pdata
pdata	SEGMENT
$pdata$??$?5DU?$char_traits@D@std@@V?$allocator@D@1@@std@@YAAEAV?$basic_istream@DU?$char_traits@D@std@@@0@$$QEAV10@AEAV?$basic_string@DU?$char_traits@D@std@@V?$allocator@D@2@@0@@Z DD imagerel $LN90@operator
	DD	imagerel $LN90@operator+483
	DD	imagerel $unwind$??$?5DU?$char_traits@D@std@@V?$allocator@D@1@@std@@YAAEAV?$basic_istream@DU?$char_traits@D@std@@@0@$$QEAV10@AEAV?$basic_string@DU?$char_traits@D@std@@V?$allocator@D@2@@0@@Z
pdata	ENDS
;	COMDAT pdata
pdata	SEGMENT
$pdata$?catch$5@?0???$?5DU?$char_traits@D@std@@V?$allocator@D@1@@std@@YAAEAV?$basic_istream@DU?$char_traits@D@std@@@0@$$QEAV10@AEAV?$basic_string@DU?$char_traits@D@std@@V?$allocator@D@2@@0@@Z@4HA DD imagerel ?catch$5@?0???$?5DU?$char_traits@D@std@@V?$allocator@D@1@@std@@YAAEAV?$basic_istream@DU?$char_traits@D@std@@@0@$$QEAV10@AEAV?$basic_string@DU?$char_traits@D@std@@V?$allocator@D@2@@0@@Z@4HA
	DD	imagerel ?catch$5@?0???$?5DU?$char_traits@D@std@@V?$allocator@D@1@@std@@YAAEAV?$basic_istream@DU?$char_traits@D@std@@@0@$$QEAV10@AEAV?$basic_string@DU?$char_traits@D@std@@V?$allocator@D@2@@0@@Z@4HA+59
	DD	imagerel $unwind$?catch$5@?0???$?5DU?$char_traits@D@std@@V?$allocator@D@1@@std@@YAAEAV?$basic_istream@DU?$char_traits@D@std@@@0@$$QEAV10@AEAV?$basic_string@DU?$char_traits@D@std@@V?$allocator@D@2@@0@@Z@4HA
pdata	ENDS
;	COMDAT pdata
pdata	SEGMENT
$pdata$??$_Allocate@$0BA@U_Default_allocate_traits@std@@$0A@@std@@YAPEAX_K@Z DD imagerel $LN24@Allocate
	DD	imagerel $LN24@Allocate+89
	DD	imagerel $unwind$??$_Allocate@$0BA@U_Default_allocate_traits@std@@$0A@@std@@YAPEAX_K@Z
pdata	ENDS
;	COMDAT pdata
pdata	SEGMENT
$pdata$??$_Deallocate@$0BA@$0A@@std@@YAXPEAX_K@Z DD imagerel $LN18@Deallocate
	DD	imagerel $LN18@Deallocate+53
	DD	imagerel $unwind$??$_Deallocate@$0BA@$0A@@std@@YAXPEAX_K@Z
pdata	ENDS
;	COMDAT pdata
pdata	SEGMENT
$pdata$??$_Reallocate_for@V<lambda_66f57f934f28d61049862f64df852ff0>@@PEBD@?$basic_string@DU?$char_traits@D@std@@V?$allocator@D@2@@std@@AEAAAEAV01@_KV<lambda_66f57f934f28d61049862f64df852ff0>@@PEBD@Z DD imagerel $LN66@Reallocate
	DD	imagerel $LN66@Reallocate+39
	DD	imagerel $unwind$??$_Reallocate_for@V<lambda_66f57f934f28d61049862f64df852ff0>@@PEBD@?$basic_string@DU?$char_traits@D@std@@V?$allocator@D@2@@std@@AEAAAEAV01@_KV<lambda_66f57f934f28d61049862f64df852ff0>@@PEBD@Z
pdata	ENDS
;	COMDAT pdata
pdata	SEGMENT
$pdata$1$??$_Reallocate_for@V<lambda_66f57f934f28d61049862f64df852ff0>@@PEBD@?$basic_string@DU?$char_traits@D@std@@V?$allocator@D@2@@std@@AEAAAEAV01@_KV<lambda_66f57f934f28d61049862f64df852ff0>@@PEBD@Z DD imagerel $LN66@Reallocate+39
	DD	imagerel $LN66@Reallocate+289
	DD	imagerel $chain$1$??$_Reallocate_for@V<lambda_66f57f934f28d61049862f64df852ff0>@@PEBD@?$basic_string@DU?$char_traits@D@std@@V?$allocator@D@2@@std@@AEAAAEAV01@_KV<lambda_66f57f934f28d61049862f64df852ff0>@@PEBD@Z
pdata	ENDS
;	COMDAT pdata
pdata	SEGMENT
$pdata$3$??$_Reallocate_for@V<lambda_66f57f934f28d61049862f64df852ff0>@@PEBD@?$basic_string@DU?$char_traits@D@std@@V?$allocator@D@2@@std@@AEAAAEAV01@_KV<lambda_66f57f934f28d61049862f64df852ff0>@@PEBD@Z DD imagerel $LN66@Reallocate+289
	DD	imagerel $LN66@Reallocate+302
	DD	imagerel $chain$3$??$_Reallocate_for@V<lambda_66f57f934f28d61049862f64df852ff0>@@PEBD@?$basic_string@DU?$char_traits@D@std@@V?$allocator@D@2@@std@@AEAAAEAV01@_KV<lambda_66f57f934f28d61049862f64df852ff0>@@PEBD@Z
pdata	ENDS
;	COMDAT pdata
pdata	SEGMENT
$pdata$4$??$_Reallocate_for@V<lambda_66f57f934f28d61049862f64df852ff0>@@PEBD@?$basic_string@DU?$char_traits@D@std@@V?$allocator@D@2@@std@@AEAAAEAV01@_KV<lambda_66f57f934f28d61049862f64df852ff0>@@PEBD@Z DD imagerel $LN66@Reallocate+302
	DD	imagerel $LN66@Reallocate+308
	DD	imagerel $chain$4$??$_Reallocate_for@V<lambda_66f57f934f28d61049862f64df852ff0>@@PEBD@?$basic_string@DU?$char_traits@D@std@@V?$allocator@D@2@@std@@AEAAAEAV01@_KV<lambda_66f57f934f28d61049862f64df852ff0>@@PEBD@Z
pdata	ENDS
;	COMDAT pdata
pdata	SEGMENT
$pdata$??$_Reallocate_for@V<lambda_138c3d7c38c85abb84c7fc7bfe5747b7>@@D@?$basic_string@DU?$char_traits@D@std@@V?$allocator@D@2@@std@@AEAAAEAV01@_KV<lambda_138c3d7c38c85abb84c7fc7bfe5747b7>@@D@Z DD imagerel $LN66@Reallocate
	DD	imagerel $LN66@Reallocate+34
	DD	imagerel $unwind$??$_Reallocate_for@V<lambda_138c3d7c38c85abb84c7fc7bfe5747b7>@@D@?$basic_string@DU?$char_traits@D@std@@V?$allocator@D@2@@std@@AEAAAEAV01@_KV<lambda_138c3d7c38c85abb84c7fc7bfe5747b7>@@D@Z
pdata	ENDS
;	COMDAT pdata
pdata	SEGMENT
$pdata$1$??$_Reallocate_for@V<lambda_138c3d7c38c85abb84c7fc7bfe5747b7>@@D@?$basic_string@DU?$char_traits@D@std@@V?$allocator@D@2@@std@@AEAAAEAV01@_KV<lambda_138c3d7c38c85abb84c7fc7bfe5747b7>@@D@Z DD imagerel $LN66@Reallocate+34
	DD	imagerel $LN66@Reallocate+281
	DD	imagerel $chain$1$??$_Reallocate_for@V<lambda_138c3d7c38c85abb84c7fc7bfe5747b7>@@D@?$basic_string@DU?$char_traits@D@std@@V?$allocator@D@2@@std@@AEAAAEAV01@_KV<lambda_138c3d7c38c85abb84c7fc7bfe5747b7>@@D@Z
pdata	ENDS
;	COMDAT pdata
pdata	SEGMENT
$pdata$3$??$_Reallocate_for@V<lambda_138c3d7c38c85abb84c7fc7bfe5747b7>@@D@?$basic_string@DU?$char_traits@D@std@@V?$allocator@D@2@@std@@AEAAAEAV01@_KV<lambda_138c3d7c38c85abb84c7fc7bfe5747b7>@@D@Z DD imagerel $LN66@Reallocate+281
	DD	imagerel $LN66@Reallocate+294
	DD	imagerel $chain$3$??$_Reallocate_for@V<lambda_138c3d7c38c85abb84c7fc7bfe5747b7>@@D@?$basic_string@DU?$char_traits@D@std@@V?$allocator@D@2@@std@@AEAAAEAV01@_KV<lambda_138c3d7c38c85abb84c7fc7bfe5747b7>@@D@Z
pdata	ENDS
;	COMDAT pdata
pdata	SEGMENT
$pdata$4$??$_Reallocate_for@V<lambda_138c3d7c38c85abb84c7fc7bfe5747b7>@@D@?$basic_string@DU?$char_traits@D@std@@V?$allocator@D@2@@std@@AEAAAEAV01@_KV<lambda_138c3d7c38c85abb84c7fc7bfe5747b7>@@D@Z DD imagerel $LN66@Reallocate+294
	DD	imagerel $LN66@Reallocate+300
	DD	imagerel $chain$4$??$_Reallocate_for@V<lambda_138c3d7c38c85abb84c7fc7bfe5747b7>@@D@?$basic_string@DU?$char_traits@D@std@@V?$allocator@D@2@@std@@AEAAAEAV01@_KV<lambda_138c3d7c38c85abb84c7fc7bfe5747b7>@@D@Z
pdata	ENDS
;	COMDAT pdata
pdata	SEGMENT
$pdata$??$_Reallocate_grow_by@V<lambda_16d2cb92461ac9818af78a76c749bd7f>@@_K_KPEBD_K@?$basic_string@DU?$char_traits@D@std@@V?$allocator@D@2@@std@@AEAAAEAV01@_KV<lambda_16d2cb92461ac9818af78a76c749bd7f>@@_K2PEBD2@Z DD imagerel $LN80@Reallocate
	DD	imagerel $LN80@Reallocate+51
	DD	imagerel $unwind$??$_Reallocate_grow_by@V<lambda_16d2cb92461ac9818af78a76c749bd7f>@@_K_KPEBD_K@?$basic_string@DU?$char_traits@D@std@@V?$allocator@D@2@@std@@AEAAAEAV01@_KV<lambda_16d2cb92461ac9818af78a76c749bd7f>@@_K2PEBD2@Z
pdata	ENDS
;	COMDAT pdata
pdata	SEGMENT
$pdata$3$??$_Reallocate_grow_by@V<lambda_16d2cb92461ac9818af78a76c749bd7f>@@_K_KPEBD_K@?$basic_string@DU?$char_traits@D@std@@V?$allocator@D@2@@std@@AEAAAEAV01@_KV<lambda_16d2cb92461ac9818af78a76c749bd7f>@@_K2PEBD2@Z DD imagerel $LN80@Reallocate+51
	DD	imagerel $LN80@Reallocate+389
	DD	imagerel $chain$3$??$_Reallocate_grow_by@V<lambda_16d2cb92461ac9818af78a76c749bd7f>@@_K_KPEBD_K@?$basic_string@DU?$char_traits@D@std@@V?$allocator@D@2@@std@@AEAAAEAV01@_KV<lambda_16d2cb92461ac9818af78a76c749bd7f>@@_K2PEBD2@Z
pdata	ENDS
;	COMDAT pdata
pdata	SEGMENT
$pdata$5$??$_Reallocate_grow_by@V<lambda_16d2cb92461ac9818af78a76c749bd7f>@@_K_KPEBD_K@?$basic_string@DU?$char_traits@D@std@@V?$allocator@D@2@@std@@AEAAAEAV01@_KV<lambda_16d2cb92461ac9818af78a76c749bd7f>@@_K2PEBD2@Z DD imagerel $LN80@Reallocate+389
	DD	imagerel $LN80@Reallocate+395
	DD	imagerel $chain$5$??$_Reallocate_grow_by@V<lambda_16d2cb92461ac9818af78a76c749bd7f>@@_K_KPEBD_K@?$basic_string@DU?$char_traits@D@std@@V?$allocator@D@2@@std@@AEAAAEAV01@_KV<lambda_16d2cb92461ac9818af78a76c749bd7f>@@_K2PEBD2@Z
pdata	ENDS
;	COMDAT pdata
pdata	SEGMENT
$pdata$6$??$_Reallocate_grow_by@V<lambda_16d2cb92461ac9818af78a76c749bd7f>@@_K_KPEBD_K@?$basic_string@DU?$char_traits@D@std@@V?$allocator@D@2@@std@@AEAAAEAV01@_KV<lambda_16d2cb92461ac9818af78a76c749bd7f>@@_K2PEBD2@Z DD imagerel $LN80@Reallocate+395
	DD	imagerel $LN80@Reallocate+401
	DD	imagerel $chain$6$??$_Reallocate_grow_by@V<lambda_16d2cb92461ac9818af78a76c749bd7f>@@_K_KPEBD_K@?$basic_string@DU?$char_traits@D@std@@V?$allocator@D@2@@std@@AEAAAEAV01@_KV<lambda_16d2cb92461ac9818af78a76c749bd7f>@@_K2PEBD2@Z
pdata	ENDS
;	COMDAT pdata
pdata	SEGMENT
$pdata$??$_Reallocate_grow_by@V<lambda_319d5e083f45f90dcdce5dce53cbb275>@@D@?$basic_string@DU?$char_traits@D@std@@V?$allocator@D@2@@std@@AEAAAEAV01@_KV<lambda_319d5e083f45f90dcdce5dce53cbb275>@@D@Z DD imagerel $LN71@Reallocate
	DD	imagerel $LN71@Reallocate+47
	DD	imagerel $unwind$??$_Reallocate_grow_by@V<lambda_319d5e083f45f90dcdce5dce53cbb275>@@D@?$basic_string@DU?$char_traits@D@std@@V?$allocator@D@2@@std@@AEAAAEAV01@_KV<lambda_319d5e083f45f90dcdce5dce53cbb275>@@D@Z
pdata	ENDS
;	COMDAT pdata
pdata	SEGMENT
$pdata$2$??$_Reallocate_grow_by@V<lambda_319d5e083f45f90dcdce5dce53cbb275>@@D@?$basic_string@DU?$char_traits@D@std@@V?$allocator@D@2@@std@@AEAAAEAV01@_KV<lambda_319d5e083f45f90dcdce5dce53cbb275>@@D@Z DD imagerel $LN71@Reallocate+47
	DD	imagerel $LN71@Reallocate+339
	DD	imagerel $chain$2$??$_Reallocate_grow_by@V<lambda_319d5e083f45f90dcdce5dce53cbb275>@@D@?$basic_string@DU?$char_traits@D@std@@V?$allocator@D@2@@std@@AEAAAEAV01@_KV<lambda_319d5e083f45f90dcdce5dce53cbb275>@@D@Z
pdata	ENDS
;	COMDAT pdata
pdata	SEGMENT
$pdata$4$??$_Reallocate_grow_by@V<lambda_319d5e083f45f90dcdce5dce53cbb275>@@D@?$basic_string@DU?$char_traits@D@std@@V?$allocator@D@2@@std@@AEAAAEAV01@_KV<lambda_319d5e083f45f90dcdce5dce53cbb275>@@D@Z DD imagerel $LN71@Reallocate+339
	DD	imagerel $LN71@Reallocate+345
	DD	imagerel $chain$4$??$_Reallocate_grow_by@V<lambda_319d5e083f45f90dcdce5dce53cbb275>@@D@?$basic_string@DU?$char_traits@D@std@@V?$allocator@D@2@@std@@AEAAAEAV01@_KV<lambda_319d5e083f45f90dcdce5dce53cbb275>@@D@Z
pdata	ENDS
;	COMDAT pdata
pdata	SEGMENT
$pdata$5$??$_Reallocate_grow_by@V<lambda_319d5e083f45f90dcdce5dce53cbb275>@@D@?$basic_string@DU?$char_traits@D@std@@V?$allocator@D@2@@std@@AEAAAEAV01@_KV<lambda_319d5e083f45f90dcdce5dce53cbb275>@@D@Z DD imagerel $LN71@Reallocate+345
	DD	imagerel $LN71@Reallocate+351
	DD	imagerel $chain$5$??$_Reallocate_grow_by@V<lambda_319d5e083f45f90dcdce5dce53cbb275>@@D@?$basic_string@DU?$char_traits@D@std@@V?$allocator@D@2@@std@@AEAAAEAV01@_KV<lambda_319d5e083f45f90dcdce5dce53cbb275>@@D@Z
pdata	ENDS
;	COMDAT pdata
pdata	SEGMENT
$pdata$??$_Traits_find_ch@U?$char_traits@D@std@@@std@@YA_KQEBD_K1D@Z DD imagerel $LN9@Traits_fin
	DD	imagerel $LN9@Traits_fin+62
	DD	imagerel $unwind$??$_Traits_find_ch@U?$char_traits@D@std@@@std@@YA_KQEBD_K1D@Z
pdata	ENDS
;	COMDAT pdata
pdata	SEGMENT
$pdata$??$?6DU?$char_traits@D@std@@_J@std@@YAAEAV?$basic_ostream@DU?$char_traits@D@std@@@0@AEAV10@AEBU?$_Smanip@_J@0@@Z DD imagerel $LN4@operator
	DD	imagerel $LN4@operator+38
	DD	imagerel $unwind$??$?6DU?$char_traits@D@std@@_J@std@@YAAEAV?$basic_ostream@DU?$char_traits@D@std@@@0@AEAV10@AEBU?$_Smanip@_J@0@@Z
pdata	ENDS
;	COMDAT pdata
pdata	SEGMENT
$pdata$??$endl@DU?$char_traits@D@std@@@std@@YAAEAV?$basic_ostream@DU?$char_traits@D@std@@@0@AEAV10@@Z DD imagerel $LN4@endl
	DD	imagerel $LN4@endl+57
	DD	imagerel $unwind$??$endl@DU?$char_traits@D@std@@@std@@YAAEAV?$basic_ostream@DU?$char_traits@D@std@@@0@AEAV10@@Z
pdata	ENDS
;	COMDAT pdata
pdata	SEGMENT
$pdata$??$?6U?$char_traits@D@std@@@std@@YAAEAV?$basic_ostream@DU?$char_traits@D@std@@@0@AEAV10@PEBD@Z DD imagerel $LN99@operator
	DD	imagerel $LN99@operator+458
	DD	imagerel $unwind$??$?6U?$char_traits@D@std@@@std@@YAAEAV?$basic_ostream@DU?$char_traits@D@std@@@0@AEAV10@PEBD@Z
pdata	ENDS
;	COMDAT pdata
pdata	SEGMENT
$pdata$?catch$4@?0???$?6U?$char_traits@D@std@@@std@@YAAEAV?$basic_ostream@DU?$char_traits@D@std@@@0@AEAV10@PEBD@Z@4HA DD imagerel ?catch$4@?0???$?6U?$char_traits@D@std@@@std@@YAAEAV?$basic_ostream@DU?$char_traits@D@std@@@0@AEAV10@PEBD@Z@4HA
	DD	imagerel ?catch$4@?0???$?6U?$char_traits@D@std@@@std@@YAAEAV?$basic_ostream@DU?$char_traits@D@std@@@0@AEAV10@PEBD@Z@4HA+59
	DD	imagerel $unwind$?catch$4@?0???$?6U?$char_traits@D@std@@@std@@YAAEAV?$basic_ostream@DU?$char_traits@D@std@@@0@AEAV10@PEBD@Z@4HA
pdata	ENDS
;	COMDAT pdata
pdata	SEGMENT
$pdata$??$?6U?$char_traits@D@std@@@std@@YAAEAV?$basic_ostream@DU?$char_traits@D@std@@@0@AEAV10@D@Z DD imagerel $LN96@operator
	DD	imagerel $LN96@operator+436
	DD	imagerel $unwind$??$?6U?$char_traits@D@std@@@std@@YAAEAV?$basic_ostream@DU?$char_traits@D@std@@@0@AEAV10@D@Z
pdata	ENDS
;	COMDAT pdata
pdata	SEGMENT
$pdata$?catch$4@?0???$?6U?$char_traits@D@std@@@std@@YAAEAV?$basic_ostream@DU?$char_traits@D@std@@@0@AEAV10@D@Z@4HA DD imagerel ?catch$4@?0???$?6U?$char_traits@D@std@@@std@@YAAEAV?$basic_ostream@DU?$char_traits@D@std@@@0@AEAV10@D@Z@4HA
	DD	imagerel ?catch$4@?0???$?6U?$char_traits@D@std@@@std@@YAAEAV?$basic_ostream@DU?$char_traits@D@std@@@0@AEAV10@D@Z@4HA+59
	DD	imagerel $unwind$?catch$4@?0???$?6U?$char_traits@D@std@@@std@@YAAEAV?$basic_ostream@DU?$char_traits@D@std@@@0@AEAV10@D@Z@4HA
pdata	ENDS
;	COMDAT pdata
pdata	SEGMENT
$pdata$??$use_facet@V?$ctype@D@std@@@std@@YAAEBV?$ctype@D@0@AEBVlocale@0@@Z DD imagerel $LN41@use_facet
	DD	imagerel $LN41@use_facet+251
	DD	imagerel $unwind$??$use_facet@V?$ctype@D@std@@@std@@YAAEBV?$ctype@D@0@AEBVlocale@0@@Z
pdata	ENDS
;	COMDAT pdata
pdata	SEGMENT
$pdata$?assign@?$_Narrow_char_traits@DH@std@@SAPEADQEAD_KD@Z DD imagerel $LN5@assign
	DD	imagerel $LN5@assign+28
	DD	imagerel $unwind$?assign@?$_Narrow_char_traits@DH@std@@SAPEADQEAD_KD@Z
pdata	ENDS
;	COMDAT pdata
pdata	SEGMENT
$pdata$?deallocate@?$allocator@D@std@@QEAAXQEAD_K@Z DD imagerel $LN21@deallocate
	DD	imagerel $LN21@deallocate+62
	DD	imagerel $unwind$?deallocate@?$allocator@D@std@@QEAAXQEAD_K@Z
pdata	ENDS
;	COMDAT pdata
pdata	SEGMENT
$pdata$?allocate@?$allocator@D@std@@QEAAPEAD_K@Z DD imagerel $LN27@allocate
	DD	imagerel $LN27@allocate+89
	DD	imagerel $unwind$?allocate@?$allocator@D@std@@QEAAPEAD_K@Z
pdata	ENDS
;	COMDAT pdata
pdata	SEGMENT
$pdata$?_Xran@?$_String_val@U?$_Simple_types@D@std@@@std@@SAXXZ DD imagerel $LN4@Xran
	DD	imagerel $LN4@Xran+18
	DD	imagerel $unwind$?_Xran@?$_String_val@U?$_Simple_types@D@std@@@std@@SAXXZ
pdata	ENDS
;	COMDAT pdata
pdata	SEGMENT
$pdata$?assign@?$basic_string@DU?$char_traits@D@std@@V?$allocator@D@2@@std@@QEAAAEAV12@AEBV12@_K_K@Z DD imagerel $LN20@assign
	DD	imagerel $LN20@assign+54
	DD	imagerel $unwind$?assign@?$basic_string@DU?$char_traits@D@std@@V?$allocator@D@2@@std@@QEAAAEAV12@AEBV12@_K_K@Z
pdata	ENDS
;	COMDAT pdata
pdata	SEGMENT
$pdata$??0_Sentry_base@?$basic_ostream@DU?$char_traits@D@std@@@std@@QEAA@AEAV12@@Z DD imagerel $LN8@Sentry_bas
	DD	imagerel $LN8@Sentry_bas+44
	DD	imagerel $unwind$??0_Sentry_base@?$basic_ostream@DU?$char_traits@D@std@@@std@@QEAA@AEAV12@@Z
pdata	ENDS
;	COMDAT pdata
pdata	SEGMENT
$pdata$??1_Sentry_base@?$basic_ostream@DU?$char_traits@D@std@@@std@@QEAA@XZ DD imagerel $LN8@Sentry_bas
	DD	imagerel $LN8@Sentry_bas+36
	DD	imagerel $unwind$??1_Sentry_base@?$basic_ostream@DU?$char_traits@D@std@@@std@@QEAA@XZ
pdata	ENDS
;	COMDAT pdata
pdata	SEGMENT
$pdata$?copy@?$_Narrow_char_traits@DH@std@@SAPEADQEADQEBD_K@Z DD imagerel $LN5@copy
	DD	imagerel $LN5@copy+23
	DD	imagerel $unwind$?copy@?$_Narrow_char_traits@DH@std@@SAPEADQEADQEBD_K@Z
pdata	ENDS
;	COMDAT pdata
pdata	SEGMENT
$pdata$?_Check_offset@?$_String_val@U?$_Simple_types@D@std@@@std@@QEBAX_K@Z DD imagerel $LN7@Check_offs
	DD	imagerel $LN7@Check_offs+21
	DD	imagerel $unwind$?_Check_offset@?$_String_val@U?$_Simple_types@D@std@@@std@@QEBAX_K@Z
pdata	ENDS
;	COMDAT pdata
pdata	SEGMENT
$pdata$??0?$basic_string@DU?$char_traits@D@std@@V?$allocator@D@2@@std@@QEAA@AEBV01@_K1AEBV?$allocator@D@1@@Z DD imagerel $LN29@basic_stri
	DD	imagerel $LN29@basic_stri+83
	DD	imagerel $unwind$??0?$basic_string@DU?$char_traits@D@std@@V?$allocator@D@2@@std@@QEAA@AEBV01@_K1AEBV?$allocator@D@1@@Z
pdata	ENDS
;	COMDAT pdata
pdata	SEGMENT
$pdata$?_Move_assign@?$basic_string@DU?$char_traits@D@std@@V?$allocator@D@2@@std@@AEAAXAEAV12@U_Equal_allocators@2@@Z DD imagerel $LN36@Move_assig
	DD	imagerel $LN36@Move_assig+132
	DD	imagerel $unwind$?_Move_assign@?$basic_string@DU?$char_traits@D@std@@V?$allocator@D@2@@std@@AEAAXAEAV12@U_Equal_allocators@2@@Z
pdata	ENDS
;	COMDAT pdata
pdata	SEGMENT
$pdata$?_Construct_lv_contents@?$basic_string@DU?$char_traits@D@std@@V?$allocator@D@2@@std@@AEAAXAEBV12@@Z DD imagerel $LN44@Construct_
	DD	imagerel $LN44@Construct_+230
	DD	imagerel $unwind$?_Construct_lv_contents@?$basic_string@DU?$char_traits@D@std@@V?$allocator@D@2@@std@@AEAAXAEBV12@@Z
pdata	ENDS
;	COMDAT pdata
pdata	SEGMENT
$pdata$??R<lambda_66f57f934f28d61049862f64df852ff0>@@QEBAXQEAD_KQEBD@Z DD imagerel $LN7@operator
	DD	imagerel $LN7@operator+42
	DD	imagerel $unwind$??R<lambda_66f57f934f28d61049862f64df852ff0>@@QEBAXQEAD_KQEBD@Z
pdata	ENDS
;	COMDAT pdata
pdata	SEGMENT
$pdata$?assign@?$basic_string@DU?$char_traits@D@std@@V?$allocator@D@2@@std@@QEAAAEAV12@QEBD_K@Z DD imagerel $LN77@assign
	DD	imagerel $LN77@assign+139
	DD	imagerel $unwind$?assign@?$basic_string@DU?$char_traits@D@std@@V?$allocator@D@2@@std@@QEAAAEAV12@QEBD_K@Z
pdata	ENDS
;	COMDAT pdata
pdata	SEGMENT
$pdata$0$?assign@?$basic_string@DU?$char_traits@D@std@@V?$allocator@D@2@@std@@QEAAAEAV12@QEBD_K@Z DD imagerel $LN77@assign+139
	DD	imagerel $LN77@assign+330
	DD	imagerel $chain$0$?assign@?$basic_string@DU?$char_traits@D@std@@V?$allocator@D@2@@std@@QEAAAEAV12@QEBD_K@Z
pdata	ENDS
;	COMDAT pdata
pdata	SEGMENT
$pdata$2$?assign@?$basic_string@DU?$char_traits@D@std@@V?$allocator@D@2@@std@@QEAAAEAV12@QEBD_K@Z DD imagerel $LN77@assign+330
	DD	imagerel $LN77@assign+343
	DD	imagerel $chain$2$?assign@?$basic_string@DU?$char_traits@D@std@@V?$allocator@D@2@@std@@QEAAAEAV12@QEBD_K@Z
pdata	ENDS
;	COMDAT pdata
pdata	SEGMENT
$pdata$3$?assign@?$basic_string@DU?$char_traits@D@std@@V?$allocator@D@2@@std@@QEAAAEAV12@QEBD_K@Z DD imagerel $LN77@assign+343
	DD	imagerel $LN77@assign+349
	DD	imagerel $chain$3$?assign@?$basic_string@DU?$char_traits@D@std@@V?$allocator@D@2@@std@@QEAAAEAV12@QEBD_K@Z
pdata	ENDS
;	COMDAT pdata
pdata	SEGMENT
$pdata$??R<lambda_138c3d7c38c85abb84c7fc7bfe5747b7>@@QEBAXQEAD_KD@Z DD imagerel $LN7@operator
	DD	imagerel $LN7@operator+41
	DD	imagerel $unwind$??R<lambda_138c3d7c38c85abb84c7fc7bfe5747b7>@@QEBAXQEAD_KD@Z
pdata	ENDS
;	COMDAT pdata
pdata	SEGMENT
$pdata$?assign@?$basic_string@DU?$char_traits@D@std@@V?$allocator@D@2@@std@@QEAAAEAV12@_KD@Z DD imagerel $LN77@assign
	DD	imagerel $LN77@assign+141
	DD	imagerel $unwind$?assign@?$basic_string@DU?$char_traits@D@std@@V?$allocator@D@2@@std@@QEAAAEAV12@_KD@Z
pdata	ENDS
;	COMDAT pdata
pdata	SEGMENT
$pdata$0$?assign@?$basic_string@DU?$char_traits@D@std@@V?$allocator@D@2@@std@@QEAAAEAV12@_KD@Z DD imagerel $LN77@assign+141
	DD	imagerel $LN77@assign+333
	DD	imagerel $chain$0$?assign@?$basic_string@DU?$char_traits@D@std@@V?$allocator@D@2@@std@@QEAAAEAV12@_KD@Z
pdata	ENDS
;	COMDAT pdata
pdata	SEGMENT
$pdata$2$?assign@?$basic_string@DU?$char_traits@D@std@@V?$allocator@D@2@@std@@QEAAAEAV12@_KD@Z DD imagerel $LN77@assign+333
	DD	imagerel $LN77@assign+346
	DD	imagerel $chain$2$?assign@?$basic_string@DU?$char_traits@D@std@@V?$allocator@D@2@@std@@QEAAAEAV12@_KD@Z
pdata	ENDS
;	COMDAT pdata
pdata	SEGMENT
$pdata$3$?assign@?$basic_string@DU?$char_traits@D@std@@V?$allocator@D@2@@std@@QEAAAEAV12@_KD@Z DD imagerel $LN77@assign+346
	DD	imagerel $LN77@assign+352
	DD	imagerel $chain$3$?assign@?$basic_string@DU?$char_traits@D@std@@V?$allocator@D@2@@std@@QEAAAEAV12@_KD@Z
pdata	ENDS
;	COMDAT pdata
pdata	SEGMENT
$pdata$??R<lambda_16d2cb92461ac9818af78a76c749bd7f>@@QEBAXQEADQEBD_K2212@Z DD imagerel $LN11@operator
	DD	imagerel $LN11@operator+95
	DD	imagerel $unwind$??R<lambda_16d2cb92461ac9818af78a76c749bd7f>@@QEBAXQEADQEBD_K2212@Z
pdata	ENDS
;	COMDAT pdata
pdata	SEGMENT
$pdata$?replace@?$basic_string@DU?$char_traits@D@std@@V?$allocator@D@2@@std@@QEAAAEAV12@_K_KQEBD0@Z DD imagerel $LN51@replace
	DD	imagerel $LN51@replace+190
	DD	imagerel $unwind$?replace@?$basic_string@DU?$char_traits@D@std@@V?$allocator@D@2@@std@@QEAAAEAV12@_K_KQEBD0@Z
pdata	ENDS
;	COMDAT pdata
pdata	SEGMENT
$pdata$3$?replace@?$basic_string@DU?$char_traits@D@std@@V?$allocator@D@2@@std@@QEAAAEAV12@_K_KQEBD0@Z DD imagerel $LN51@replace+190
	DD	imagerel $LN51@replace+316
	DD	imagerel $chain$3$?replace@?$basic_string@DU?$char_traits@D@std@@V?$allocator@D@2@@std@@QEAAAEAV12@_K_KQEBD0@Z
pdata	ENDS
;	COMDAT pdata
pdata	SEGMENT
$pdata$4$?replace@?$basic_string@DU?$char_traits@D@std@@V?$allocator@D@2@@std@@QEAAAEAV12@_K_KQEBD0@Z DD imagerel $LN51@replace+316
	DD	imagerel $LN51@replace+370
	DD	imagerel $chain$4$?replace@?$basic_string@DU?$char_traits@D@std@@V?$allocator@D@2@@std@@QEAAAEAV12@_K_KQEBD0@Z
pdata	ENDS
;	COMDAT pdata
pdata	SEGMENT
$pdata$??R<lambda_319d5e083f45f90dcdce5dce53cbb275>@@QEBAXQEADQEBD_KD@Z DD imagerel $LN7@operator
	DD	imagerel $LN7@operator+57
	DD	imagerel $unwind$??R<lambda_319d5e083f45f90dcdce5dce53cbb275>@@QEBAXQEADQEBD_KD@Z
pdata	ENDS
;	COMDAT pdata
pdata	SEGMENT
$pdata$?_Tidy_deallocate@?$basic_string@DU?$char_traits@D@std@@V?$allocator@D@2@@std@@AEAAXXZ DD imagerel $LN27@Tidy_deall
	DD	imagerel $LN27@Tidy_deall+95
	DD	imagerel $unwind$?_Tidy_deallocate@?$basic_string@DU?$char_traits@D@std@@V?$allocator@D@2@@std@@AEAAXXZ
pdata	ENDS
;	COMDAT pdata
pdata	SEGMENT
$pdata$??0sentry@?$basic_ostream@DU?$char_traits@D@std@@@std@@QEAA@AEAV12@@Z DD imagerel $LN24@sentry
	DD	imagerel $LN24@sentry+122
	DD	imagerel $unwind$??0sentry@?$basic_ostream@DU?$char_traits@D@std@@@std@@QEAA@AEAV12@@Z
pdata	ENDS
;	COMDAT pdata
pdata	SEGMENT
$pdata$??1sentry@?$basic_ostream@DU?$char_traits@D@std@@@std@@QEAA@XZ DD imagerel $LN13@sentry
	DD	imagerel $LN13@sentry+62
	DD	imagerel $unwind$??1sentry@?$basic_ostream@DU?$char_traits@D@std@@@std@@QEAA@XZ
pdata	ENDS
;	COMDAT pdata
pdata	SEGMENT
$pdata$??0?$basic_string@DU?$char_traits@D@std@@V?$allocator@D@2@@std@@QEAA@AEBV01@@Z DD imagerel $LN50@basic_stri
	DD	imagerel $LN50@basic_stri+203
	DD	imagerel $unwind$??0?$basic_string@DU?$char_traits@D@std@@V?$allocator@D@2@@std@@QEAA@AEBV01@@Z
pdata	ENDS
;	COMDAT pdata
pdata	SEGMENT
$pdata$??0?$basic_string@DU?$char_traits@D@std@@V?$allocator@D@2@@std@@QEAA@QEBD@Z DD imagerel $LN16@basic_stri
	DD	imagerel $LN16@basic_stri+59
	DD	imagerel $unwind$??0?$basic_string@DU?$char_traits@D@std@@V?$allocator@D@2@@std@@QEAA@QEBD@Z
pdata	ENDS
;	COMDAT pdata
pdata	SEGMENT
$pdata$??0?$basic_string@DU?$char_traits@D@std@@V?$allocator@D@2@@std@@QEAA@_KD@Z DD imagerel $LN11@basic_stri
	DD	imagerel $LN11@basic_stri+42
	DD	imagerel $unwind$??0?$basic_string@DU?$char_traits@D@std@@V?$allocator@D@2@@std@@QEAA@_KD@Z
pdata	ENDS
;	COMDAT pdata
pdata	SEGMENT
$pdata$??4?$basic_string@DU?$char_traits@D@std@@V?$allocator@D@2@@std@@QEAAAEAV01@$$QEAV01@@Z DD imagerel $LN40@operator
	DD	imagerel $LN40@operator+140
	DD	imagerel $unwind$??4?$basic_string@DU?$char_traits@D@std@@V?$allocator@D@2@@std@@QEAAAEAV01@$$QEAV01@@Z
pdata	ENDS
;	COMDAT pdata
pdata	SEGMENT
$pdata$??1?$basic_string@DU?$char_traits@D@std@@V?$allocator@D@2@@std@@QEAA@XZ DD imagerel $LN30@basic_stri
	DD	imagerel $LN30@basic_stri+95
	DD	imagerel $unwind$??1?$basic_string@DU?$char_traits@D@std@@V?$allocator@D@2@@std@@QEAA@XZ
pdata	ENDS
;	COMDAT pdata
pdata	SEGMENT
$pdata$??4?$basic_string@DU?$char_traits@D@std@@V?$allocator@D@2@@std@@QEAAAEAV01@AEBV01@@Z DD imagerel $LN14@operator
	DD	imagerel $LN14@operator+48
	DD	imagerel $unwind$??4?$basic_string@DU?$char_traits@D@std@@V?$allocator@D@2@@std@@QEAAAEAV01@AEBV01@@Z
pdata	ENDS
;	COMDAT pdata
pdata	SEGMENT
$pdata$?erase@?$basic_string@DU?$char_traits@D@std@@V?$allocator@D@2@@std@@QEAAAEAV12@_K_K@Z DD imagerel $LN20@erase
	DD	imagerel $LN20@erase+63
	DD	imagerel $unwind$?erase@?$basic_string@DU?$char_traits@D@std@@V?$allocator@D@2@@std@@QEAAAEAV12@_K_K@Z
pdata	ENDS
;	COMDAT pdata
pdata	SEGMENT
$pdata$?replace@?$basic_string@DU?$char_traits@D@std@@V?$allocator@D@2@@std@@QEAAAEAV12@_K0AEBV12@@Z DD imagerel $LN10@replace
	DD	imagerel $LN10@replace+39
	DD	imagerel $unwind$?replace@?$basic_string@DU?$char_traits@D@std@@V?$allocator@D@2@@std@@QEAAAEAV12@_K0AEBV12@@Z
pdata	ENDS
;	COMDAT pdata
pdata	SEGMENT
$pdata$?find@?$basic_string@DU?$char_traits@D@std@@V?$allocator@D@2@@std@@QEBA_KD_K@Z DD imagerel $LN16@find
	DD	imagerel $LN16@find+66
	DD	imagerel $unwind$?find@?$basic_string@DU?$char_traits@D@std@@V?$allocator@D@2@@std@@QEBA_KD_K@Z
pdata	ENDS
;	COMDAT pdata
pdata	SEGMENT
$pdata$?find_first_of@?$basic_string@DU?$char_traits@D@std@@V?$allocator@D@2@@std@@QEBA_KD_K@Z DD imagerel $LN16@find_first
	DD	imagerel $LN16@find_first+73
	DD	imagerel $unwind$?find_first_of@?$basic_string@DU?$char_traits@D@std@@V?$allocator@D@2@@std@@QEBA_KD_K@Z
pdata	ENDS
;	COMDAT pdata
pdata	SEGMENT
$pdata$?substr@?$basic_string@DU?$char_traits@D@std@@V?$allocator@D@2@@std@@QEBA?AV12@_K0@Z DD imagerel $LN34@substr
	DD	imagerel $LN34@substr+92
	DD	imagerel $unwind$?substr@?$basic_string@DU?$char_traits@D@std@@V?$allocator@D@2@@std@@QEBA?AV12@_K0@Z
pdata	ENDS
;	COMDAT pdata
pdata	SEGMENT
$pdata$?petla_przed@@YA_JV?$basic_string@DU?$char_traits@D@std@@V?$allocator@D@2@@std@@FF@Z DD imagerel $LN456@petla_prze
	DD	imagerel $LN456@petla_prze+1222
	DD	imagerel $unwind$?petla_przed@@YA_JV?$basic_string@DU?$char_traits@D@std@@V?$allocator@D@2@@std@@FF@Z
pdata	ENDS
;	COMDAT pdata
pdata	SEGMENT
$pdata$?petla_za@@YA_JV?$basic_string@DU?$char_traits@D@std@@V?$allocator@D@2@@std@@FF@Z DD imagerel $LN451
	DD	imagerel $LN451+1362
	DD	imagerel $unwind$?petla_za@@YA_JV?$basic_string@DU?$char_traits@D@std@@V?$allocator@D@2@@std@@FF@Z
pdata	ENDS
;	COMDAT pdata
pdata	SEGMENT
$pdata$?znak_przed@@YA_NV?$basic_string@DU?$char_traits@D@std@@V?$allocator@D@2@@std@@@Z DD imagerel $LN80@znak_przed
	DD	imagerel $LN80@znak_przed+192
	DD	imagerel $unwind$?znak_przed@@YA_NV?$basic_string@DU?$char_traits@D@std@@V?$allocator@D@2@@std@@@Z
pdata	ENDS
;	COMDAT pdata
pdata	SEGMENT
$pdata$?znaki_niedozwolone@@YA_NV?$basic_string@DU?$char_traits@D@std@@V?$allocator@D@2@@std@@@Z DD imagerel $LN88@znaki_nied
	DD	imagerel $LN88@znaki_nied+263
	DD	imagerel $unwind$?znaki_niedozwolone@@YA_NV?$basic_string@DU?$char_traits@D@std@@V?$allocator@D@2@@std@@@Z
pdata	ENDS
;	COMDAT pdata
pdata	SEGMENT
$pdata$?znak_jaki_log@@YAXHH@Z DD imagerel $LN9@znak_jaki_
	DD	imagerel $LN9@znak_jaki_+17
	DD	imagerel $unwind$?znak_jaki_log@@YAXHH@Z
pdata	ENDS
;	COMDAT pdata
pdata	SEGMENT
$pdata$0$?znak_jaki_log@@YAXHH@Z DD imagerel $LN9@znak_jaki_+17
	DD	imagerel $LN9@znak_jaki_+79
	DD	imagerel $chain$0$?znak_jaki_log@@YAXHH@Z
pdata	ENDS
;	COMDAT pdata
pdata	SEGMENT
$pdata$2$?znak_jaki_log@@YAXHH@Z DD imagerel $LN9@znak_jaki_+79
	DD	imagerel $LN9@znak_jaki_+83
	DD	imagerel $chain$2$?znak_jaki_log@@YAXHH@Z
pdata	ENDS
;	COMDAT pdata
pdata	SEGMENT
$pdata$3$?znak_jaki_log@@YAXHH@Z DD imagerel $LN9@znak_jaki_+83
	DD	imagerel $LN9@znak_jaki_+149
	DD	imagerel $chain$3$?znak_jaki_log@@YAXHH@Z
pdata	ENDS
;	COMDAT pdata
pdata	SEGMENT
$pdata$4$?znak_jaki_log@@YAXHH@Z DD imagerel $LN9@znak_jaki_+149
	DD	imagerel $LN9@znak_jaki_+154
	DD	imagerel $chain$4$?znak_jaki_log@@YAXHH@Z
pdata	ENDS
;	COMDAT pdata
pdata	SEGMENT
$pdata$5$?znak_jaki_log@@YAXHH@Z DD imagerel $LN9@znak_jaki_+154
	DD	imagerel $LN9@znak_jaki_+159
	DD	imagerel $chain$5$?znak_jaki_log@@YAXHH@Z
pdata	ENDS
;	COMDAT pdata
pdata	SEGMENT
$pdata$?lo@@YAXNF@Z DD imagerel $LN8@lo
	DD	imagerel $LN8@lo+163
	DD	imagerel $unwind$?lo@@YAXNF@Z
pdata	ENDS
;	COMDAT pdata
pdata	SEGMENT
$pdata$?log@@YAXV?$basic_string@DU?$char_traits@D@std@@V?$allocator@D@2@@std@@HH@Z DD imagerel $LN85@log
	DD	imagerel $LN85@log+258
	DD	imagerel $unwind$?log@@YAXV?$basic_string@DU?$char_traits@D@std@@V?$allocator@D@2@@std@@HH@Z
pdata	ENDS
;	COMDAT pdata
pdata	SEGMENT
$pdata$?to_string@std@@YA?AV?$basic_string@DU?$char_traits@D@std@@V?$allocator@D@2@@1@N@Z DD imagerel $LN22@to_string
	DD	imagerel $LN22@to_string+132
	DD	imagerel $unwind$?to_string@std@@YA?AV?$basic_string@DU?$char_traits@D@std@@V?$allocator@D@2@@1@N@Z
pdata	ENDS
;	COMDAT pdata
pdata	SEGMENT
$pdata$?stod@std@@YANAEBV?$basic_string@DU?$char_traits@D@std@@V?$allocator@D@2@@1@PEA_K@Z DD imagerel $LN16@stod
	DD	imagerel $LN16@stod+131
	DD	imagerel $unwind$?stod@std@@YANAEBV?$basic_string@DU?$char_traits@D@std@@V?$allocator@D@2@@1@PEA_K@Z
pdata	ENDS
;	COMDAT pdata
pdata	SEGMENT
$pdata$?_Getfacet@locale@std@@QEBAPEBVfacet@12@_K@Z DD imagerel $LN10@Getfacet
	DD	imagerel $LN10@Getfacet+76
	DD	imagerel $unwind$?_Getfacet@locale@std@@QEBAPEBVfacet@12@_K@Z
pdata	ENDS
;	COMDAT pdata
pdata	SEGMENT
$pdata$??1locale@std@@QEAA@XZ DD imagerel $LN8@locale
	DD	imagerel $LN8@locale+47
	DD	imagerel $unwind$??1locale@std@@QEAA@XZ
pdata	ENDS
;	COMDAT pdata
pdata	SEGMENT
$pdata$??0bad_cast@std@@QEAA@AEBV01@@Z DD imagerel $LN7@bad_cast
	DD	imagerel $LN7@bad_cast+61
	DD	imagerel $unwind$??0bad_cast@std@@QEAA@AEBV01@@Z
pdata	ENDS
;	COMDAT pdata
pdata	SEGMENT
$pdata$?_Throw_bad_cast@std@@YAXXZ DD imagerel $LN4@Throw_bad_
	DD	imagerel $LN4@Throw_bad_+32
	DD	imagerel $unwind$?_Throw_bad_cast@std@@YAXXZ
pdata	ENDS
;	COMDAT pdata
pdata	SEGMENT
$pdata$??_Gbad_cast@std@@UEAAPEAXI@Z DD imagerel $LN12@scalar
	DD	imagerel $LN12@scalar+67
	DD	imagerel $unwind$??_Gbad_cast@std@@UEAAPEAXI@Z
pdata	ENDS
;	COMDAT pdata
pdata	SEGMENT
$pdata$?_Xlen_string@std@@YAXXZ DD imagerel $LN4@Xlen_strin
	DD	imagerel $LN4@Xlen_strin+18
	DD	imagerel $unwind$?_Xlen_string@std@@YAXXZ
pdata	ENDS
;	COMDAT pdata
pdata	SEGMENT
$pdata$?_Adjust_manually_vector_aligned@std@@YAXAEAPEAXAEA_K@Z DD imagerel $LN13@Adjust_man
	DD	imagerel $LN13@Adjust_man+43
	DD	imagerel $unwind$?_Adjust_manually_vector_aligned@std@@YAXAEAPEAXAEA_K@Z
pdata	ENDS
;	COMDAT pdata
pdata	SEGMENT
$pdata$??0bad_alloc@std@@QEAA@AEBV01@@Z DD imagerel $LN7@bad_alloc
	DD	imagerel $LN7@bad_alloc+61
	DD	imagerel $unwind$??0bad_alloc@std@@QEAA@AEBV01@@Z
pdata	ENDS
;	COMDAT pdata
pdata	SEGMENT
$pdata$??0bad_array_new_length@std@@QEAA@AEBV01@@Z DD imagerel $LN10@bad_array_
	DD	imagerel $LN10@bad_array_+61
	DD	imagerel $unwind$??0bad_array_new_length@std@@QEAA@AEBV01@@Z
pdata	ENDS
;	COMDAT pdata
pdata	SEGMENT
$pdata$?_Throw_bad_array_new_length@std@@YAXXZ DD imagerel $LN4@Throw_bad_
	DD	imagerel $LN4@Throw_bad_+32
	DD	imagerel $unwind$?_Throw_bad_array_new_length@std@@YAXXZ
pdata	ENDS
;	COMDAT pdata
pdata	SEGMENT
$pdata$??_Gbad_array_new_length@std@@UEAAPEAXI@Z DD imagerel $LN15@scalar
	DD	imagerel $LN15@scalar+67
	DD	imagerel $unwind$??_Gbad_array_new_length@std@@UEAAPEAXI@Z
pdata	ENDS
;	COMDAT pdata
pdata	SEGMENT
$pdata$??_Gbad_alloc@std@@UEAAPEAXI@Z DD imagerel $LN12@scalar
	DD	imagerel $LN12@scalar+67
	DD	imagerel $unwind$??_Gbad_alloc@std@@UEAAPEAXI@Z
pdata	ENDS
;	COMDAT pdata
pdata	SEGMENT
$pdata$??_Gexception@std@@UEAAPEAXI@Z DD imagerel $LN9@scalar
	DD	imagerel $LN9@scalar+67
	DD	imagerel $unwind$??_Gexception@std@@UEAAPEAXI@Z
pdata	ENDS
;	COMDAT pdata
pdata	SEGMENT
$pdata$??0exception@std@@QEAA@AEBV01@@Z DD imagerel $LN5@exception
	DD	imagerel $LN5@exception+51
	DD	imagerel $unwind$??0exception@std@@QEAA@AEBV01@@Z
pdata	ENDS
;	COMDAT pdata
pdata	SEGMENT
$pdata$_scprintf DD imagerel $LN6@scprintf
	DD	imagerel $LN6@scprintf+91
	DD	imagerel $unwind$_scprintf
pdata	ENDS
;	COMDAT pdata
pdata	SEGMENT
$pdata$sprintf_s DD imagerel $LN6@sprintf_s
	DD	imagerel $LN6@sprintf_s+88
	DD	imagerel $unwind$sprintf_s
pdata	ENDS
;	COMDAT pdata
pdata	SEGMENT
$pdata$_vscprintf_l DD imagerel $LN4@vscprintf_
	DD	imagerel $LN4@vscprintf_+77
	DD	imagerel $unwind$_vscprintf_l
pdata	ENDS
;	COMDAT pdata
pdata	SEGMENT
$pdata$_vsprintf_s_l DD imagerel $LN4@vsprintf_s
	DD	imagerel $LN4@vsprintf_s+92
	DD	imagerel $unwind$_vsprintf_s_l
pdata	ENDS
;	COMDAT pdata
pdata	SEGMENT
$pdata$?interpreter@@YAXH@Z DD imagerel $LN2644
	DD	imagerel $LN2644+7552
	DD	imagerel $unwind$?interpreter@@YAXH@Z
;	COMDAT xdata
xdata	SEGMENT
$ip2state$?interpreter@@YAXH@Z DB 'b'
	DB	0e6H
	DB	04H
	DB	'-', 010H
	DB	06H
	DB	'x'
	DB	04H
	DB	0e8H
	DB	06H
	DB	'X'
	DB	04H
	DB	0dH, 03H
	DB	06H
	DB	'X'
	DB	04H
	DB	'm', 03H
	DB	06H
	DB	'X'
	DB	04H
	DB	08dH, 03H
	DB	06H
	DB	'X'
	DB	04H
	DB	'=', 04H
	DB	06H
	DB	'X'
	DB	04H
	DB	'A', 03H
	DB	06H
	DB	'X'
	DB	04H
	DB	015H, 03H
	DB	06H
	DB	'x'
	DB	04H
	DB	0dcH
	DB	08H
	DB	'x'
	DB	04H
	DB	0f1H, 03H
	DB	010H
	DB	'M', 05H
	DB	012H
	DB	'X'
	DB	010H
	DB	0c1H, 02H
	DB	012H
	DB	'X'
	DB	010H
	DB	0ddH, 02H
	DB	012H
	DB	'X'
	DB	010H
	DB	0c1H, 05H
	DB	012H
	DB	'X'
	DB	010H
	DB	0f9H, 03H
	DB	012H
	DB	'x'
	DB	010H
	DB	0daH
	DB	012H
	DB	'X'
	DB	010H
	DB	0ddH, 02H
	DB	012H
	DB	'X'
	DB	010H
	DB	0a1H, 02H
	DB	012H
	DB	'X'
	DB	010H
	DB	0a9H, 05H
	DB	012H
	DB	'X'
	DB	010H
	DB	05H, 0dH
	DB	0eH
	DB	0b9H, 03H
	DB	04H
	DB	'j'
	DB	06H
	DB	','
	DB	04H
	DB	0e2H
	DB	06H
	DB	'x'
	DB	04H
	DB	0b5H, 02H
	DB	02H
	DB	'6'
	DB	00H
	DB	'`'
	DB	010H
	DB	0cH
	DB	04H
	DB	0cH
	DB	010H
xdata	ENDS
;	COMDAT xdata
xdata	SEGMENT
$stateUnwindMap$?interpreter@@YAXH@Z DB 012H
	DB	0aH
	DD	imagerel ??1?$basic_string@DU?$char_traits@D@std@@V?$allocator@D@2@@std@@QEAA@XZ
	DB	061H
	DB	02H
	DB	03aH
	DD	imagerel ??1?$basic_string@DU?$char_traits@D@std@@V?$allocator@D@2@@std@@QEAA@XZ
	DB	0f0H
	DB	034H
	DD	imagerel ??1?$basic_string@DU?$char_traits@D@std@@V?$allocator@D@2@@std@@QEAA@XZ
	DB	090H
	DB	064H
	DD	imagerel ??1?$basic_string@DU?$char_traits@D@std@@V?$allocator@D@2@@std@@QEAA@XZ
	DB	080H
	DB	092H
	DD	imagerel ??1?$basic_string@DU?$char_traits@D@std@@V?$allocator@D@2@@std@@QEAA@XZ
	DB	0b0H
	DB	032H
	DD	imagerel ??1?$basic_string@DU?$char_traits@D@std@@V?$allocator@D@2@@std@@QEAA@XZ
	DB	0e1H
	DB	02H
	DB	03aH
	DD	imagerel ??1?$basic_string@DU?$char_traits@D@std@@V?$allocator@D@2@@std@@QEAA@XZ
	DB	061H
	DB	03H
	DB	03aH
	DD	imagerel ??1?$basic_string@DU?$char_traits@D@std@@V?$allocator@D@2@@std@@QEAA@XZ
	DB	0e1H
	DB	03H
	DB	03cH
	DD	imagerel ??1?$basic_string@DU?$char_traits@D@std@@V?$allocator@D@2@@std@@QEAA@XZ
	DB	080H
xdata	ENDS
;	COMDAT xdata
xdata	SEGMENT
$cppxdata$?interpreter@@YAXH@Z DB 028H
	DD	imagerel $stateUnwindMap$?interpreter@@YAXH@Z
	DD	imagerel $ip2state$?interpreter@@YAXH@Z
xdata	ENDS
;	COMDAT xdata
xdata	SEGMENT
$unwind$?interpreter@@YAXH@Z DD 0113919H
	DD	012782bH
	DD	0136827H
	DD	0307423H
	DD	02f6423H
	DD	02e3423H
	DD	0280123H
	DD	0e016f018H
	DD	0c012d014H
	DD	05010H
	DD	imagerel __GSHandlerCheck_EH4
	DD	imagerel $cppxdata$?interpreter@@YAXH@Z
	DD	011aH
xdata	ENDS
;	COMDAT xdata
xdata	SEGMENT
$unwind$_vsprintf_s_l DQ 00009640f00060f01r	; 1.30596e-308
	DQ	0700b520f0008340fr		; 5.30195e+231
xdata	ENDS
;	COMDAT xdata
xdata	SEGMENT
$unwind$_vscprintf_l DQ 00008340a00040a01r	; 1.14081e-308
	DD	07006520aH
xdata	ENDS
;	COMDAT xdata
xdata	SEGMENT
$unwind$sprintf_s DQ 0700e621200051201r		; 5.89629e+231
	DQ	00000300b500c600dr		; 2.60991e-310
xdata	ENDS
;	COMDAT xdata
xdata	SEGMENT
$unwind$_scprintf DQ 07016621a00031a01r		; 8.68758e+231
	DD	03015H
xdata	ENDS
;	COMDAT xdata
xdata	SEGMENT
$unwind$??0exception@std@@QEAA@AEBV01@@Z DQ 03002320600020601r ; 1.96423e-77
xdata	ENDS
;	COMDAT xdata
xdata	SEGMENT
$unwind$??_Gexception@std@@UEAAPEAXI@Z DQ 00006340a00040a01r ; 8.62672e-309
	DD	07006320aH
xdata	ENDS
;	COMDAT xdata
xdata	SEGMENT
$unwind$??_Gbad_alloc@std@@UEAAPEAXI@Z DQ 00006340a00040a01r ; 8.62672e-309
	DD	07006320aH
xdata	ENDS
;	COMDAT xdata
xdata	SEGMENT
$unwind$??_Gbad_array_new_length@std@@UEAAPEAXI@Z DQ 00006340a00040a01r ; 8.62672e-309
	DD	07006320aH
xdata	ENDS
;	COMDAT xdata
xdata	SEGMENT
$unwind$?_Throw_bad_array_new_length@std@@YAXXZ DQ 00000820400010401r ; 7.06285e-310
xdata	ENDS
;	COMDAT xdata
xdata	SEGMENT
$unwind$??0bad_array_new_length@std@@QEAA@AEBV01@@Z DQ 03002320600020601r ; 1.96423e-77
xdata	ENDS
;	COMDAT xdata
xdata	SEGMENT
$unwind$??0bad_alloc@std@@QEAA@AEBV01@@Z DQ 03002320600020601r ; 1.96423e-77
xdata	ENDS
;	COMDAT xdata
xdata	SEGMENT
$unwind$?_Adjust_manually_vector_aligned@std@@YAXAEAPEAXAEA_K@Z DQ 00000420400010401r ; 3.58617e-310
xdata	ENDS
;	COMDAT xdata
xdata	SEGMENT
$unwind$?_Xlen_string@std@@YAXXZ DQ 00000420400010401r ; 3.58617e-310
xdata	ENDS
;	COMDAT xdata
xdata	SEGMENT
$unwind$??_Gbad_cast@std@@UEAAPEAXI@Z DQ 00006340a00040a01r ; 8.62672e-309
	DD	07006320aH
xdata	ENDS
;	COMDAT xdata
xdata	SEGMENT
$unwind$?_Throw_bad_cast@std@@YAXXZ DQ 00000820400010401r ; 7.06285e-310
xdata	ENDS
;	COMDAT xdata
xdata	SEGMENT
$unwind$??0bad_cast@std@@QEAA@AEBV01@@Z DQ 03002320600020601r ; 1.96423e-77
xdata	ENDS
;	COMDAT xdata
xdata	SEGMENT
$unwind$??1locale@std@@QEAA@XZ DQ 00000420400010401r ; 3.58617e-310
xdata	ENDS
;	COMDAT xdata
xdata	SEGMENT
$unwind$?_Getfacet@locale@std@@QEBAPEBVfacet@12@_K@Z DQ 03002320600020601r ; 1.96423e-77
xdata	ENDS
;	COMDAT xdata
xdata	SEGMENT
$unwind$?stod@std@@YANAEBV?$basic_string@DU?$char_traits@D@std@@V?$allocator@D@2@@1@PEA_K@Z DQ 00009340a00041919r ; 1.27987e-308
	DD	07006520aH
	DD	imagerel __GSHandlerCheck
	DD	028H
xdata	ENDS
;	COMDAT xdata
xdata	SEGMENT
$unwind$?to_string@std@@YA?AV?$basic_string@DU?$char_traits@D@std@@V?$allocator@D@2@@1@N@Z DQ 00003681e00061e01r ; 4.73761e-309
	DQ	07006720a000c340ar		; 4.35587e+231
xdata	ENDS
;	COMDAT xdata
xdata	SEGMENT
$ip2state$?log@@YAXV?$basic_string@DU?$char_traits@D@std@@V?$allocator@D@2@@std@@HH@Z DD 07202cc04H
	DB	00H
xdata	ENDS
;	COMDAT xdata
xdata	SEGMENT
$stateUnwindMap$?log@@YAXV?$basic_string@DU?$char_traits@D@std@@V?$allocator@D@2@@std@@HH@Z DW 0c02H
	DD	imagerel ??1?$basic_string@DU?$char_traits@D@std@@V?$allocator@D@2@@std@@QEAA@XZ
	DB	040H
xdata	ENDS
;	COMDAT xdata
xdata	SEGMENT
$cppxdata$?log@@YAXV?$basic_string@DU?$char_traits@D@std@@V?$allocator@D@2@@std@@HH@Z DB 028H
	DD	imagerel $stateUnwindMap$?log@@YAXV?$basic_string@DU?$char_traits@D@std@@V?$allocator@D@2@@std@@HH@Z
	DD	imagerel $ip2state$?log@@YAXV?$basic_string@DU?$char_traits@D@std@@V?$allocator@D@2@@std@@HH@Z
xdata	ENDS
;	COMDAT xdata
xdata	SEGMENT
$unwind$?log@@YAXV?$basic_string@DU?$char_traits@D@std@@V?$allocator@D@2@@std@@HH@Z DQ 03002520600021519r ; 1.97773e-77
	DD	imagerel __GSHandlerCheck_EH4
	DD	imagerel $cppxdata$?log@@YAXV?$basic_string@DU?$char_traits@D@std@@V?$allocator@D@2@@std@@HH@Z
	DD	02aH
xdata	ENDS
;	COMDAT xdata
xdata	SEGMENT
$unwind$?lo@@YAXNF@Z DQ 00002681000031001r	; 3.34664e-309
	DD	06204H
xdata	ENDS
;	COMDAT xdata
xdata	SEGMENT
$chain$5$?znak_jaki_log@@YAXHH@Z DD 021H
	DD	imagerel $LN9@znak_jaki_
	DD	imagerel $LN9@znak_jaki_+17
	DD	imagerel $unwind$?znak_jaki_log@@YAXHH@Z
xdata	ENDS
;	COMDAT xdata
xdata	SEGMENT
$chain$4$?znak_jaki_log@@YAXHH@Z DD 021H
	DD	imagerel $LN9@znak_jaki_+79
	DD	imagerel $LN9@znak_jaki_+83
	DD	imagerel $chain$2$?znak_jaki_log@@YAXHH@Z
xdata	ENDS
;	COMDAT xdata
xdata	SEGMENT
$chain$3$?znak_jaki_log@@YAXHH@Z DQ 00006340500020521r ; 8.62661e-309
	DD	imagerel $LN9@znak_jaki_+79
	DD	imagerel $LN9@znak_jaki_+83
	DD	imagerel $chain$2$?znak_jaki_log@@YAXHH@Z
xdata	ENDS
;	COMDAT xdata
xdata	SEGMENT
$chain$2$?znak_jaki_log@@YAXHH@Z DQ 00004740000020021r ; 6.19283e-309
	DD	imagerel $LN9@znak_jaki_
	DD	imagerel $LN9@znak_jaki_+17
	DD	imagerel $unwind$?znak_jaki_log@@YAXHH@Z
xdata	ENDS
;	COMDAT xdata
xdata	SEGMENT
$chain$0$?znak_jaki_log@@YAXHH@Z DQ 00004740500020521r ; 6.19294e-309
	DD	imagerel $LN9@znak_jaki_
	DD	imagerel $LN9@znak_jaki_+17
	DD	imagerel $unwind$?znak_jaki_log@@YAXHH@Z
xdata	ENDS
;	COMDAT xdata
xdata	SEGMENT
$unwind$?znak_jaki_log@@YAXHH@Z DQ 00000420400010401r ; 3.58617e-310
xdata	ENDS
;	COMDAT xdata
xdata	SEGMENT
$unwind$?znaki_niedozwolone@@YA_NV?$basic_string@DU?$char_traits@D@std@@V?$allocator@D@2@@std@@@Z DQ 0000b6418000a1801r ; 1.58411e-308
	DQ	000093418000a5418r		; 1.2799e-308
	DQ	07010e012f0143218r		; 6.5498e+231
xdata	ENDS
;	COMDAT xdata
xdata	SEGMENT
$unwind$?znak_przed@@YA_NV?$basic_string@DU?$char_traits@D@std@@V?$allocator@D@2@@std@@@Z DQ 03002320600020601r ; 1.96423e-77
xdata	ENDS
;	COMDAT xdata
xdata	SEGMENT
$ip2state$?petla_za@@YA_JV?$basic_string@DU?$char_traits@D@std@@V?$allocator@D@2@@std@@FF@Z DB 012H
	DB	015H, 02H
	DB	02H
	DB	'P'
	DB	04H
	DB	0c2H
	DB	02H
	DB	'Y', 08H
	DB	06H
	DB	'P'
	DB	02H
	DB	0f9H, 02H
	DB	06H
	DB	'p'
	DB	02H
	DB	0d2H
	DB	06H
	DB	'p'
	DB	02H
xdata	ENDS
;	COMDAT xdata
xdata	SEGMENT
$stateUnwindMap$?petla_za@@YA_JV?$basic_string@DU?$char_traits@D@std@@V?$allocator@D@2@@std@@FF@Z DB 06H
	DB	0cH
	DD	imagerel ??1?$basic_string@DU?$char_traits@D@std@@V?$allocator@D@2@@std@@QEAA@XZ
	DB	021H
	DB	02H
	DB	03cH
	DD	imagerel ??1?$basic_string@DU?$char_traits@D@std@@V?$allocator@D@2@@std@@QEAA@XZ
	DB	01H
	DB	02H
	DB	074H
	DD	imagerel ??1?$basic_string@DU?$char_traits@D@std@@V?$allocator@D@2@@std@@QEAA@XZ
	DB	090H
xdata	ENDS
;	COMDAT xdata
xdata	SEGMENT
$cppxdata$?petla_za@@YA_JV?$basic_string@DU?$char_traits@D@std@@V?$allocator@D@2@@std@@FF@Z DB 028H
	DD	imagerel $stateUnwindMap$?petla_za@@YA_JV?$basic_string@DU?$char_traits@D@std@@V?$allocator@D@2@@std@@FF@Z
	DD	imagerel $ip2state$?petla_za@@YA_JV?$basic_string@DU?$char_traits@D@std@@V?$allocator@D@2@@std@@FF@Z
xdata	ENDS
;	COMDAT xdata
xdata	SEGMENT
$unwind$?petla_za@@YA_JV?$basic_string@DU?$char_traits@D@std@@V?$allocator@D@2@@std@@FF@Z DD 0d3219H
	DD	0a6824H
	DD	020341cH
	DD	016011cH
	DD	0e00ef010H
	DD	0c00ad00cH
	DD	060077008H
	DD	05006H
	DD	imagerel __GSHandlerCheck_EH4
	DD	imagerel $cppxdata$?petla_za@@YA_JV?$basic_string@DU?$char_traits@D@std@@V?$allocator@D@2@@std@@FF@Z
	DD	092H
xdata	ENDS
;	COMDAT xdata
xdata	SEGMENT
$ip2state$?petla_przed@@YA_JV?$basic_string@DU?$char_traits@D@std@@V?$allocator@D@2@@std@@FF@Z DQ 02d02c0045002fc12r ; 7.19108e-92
	DQ	07006031502500606r		; 4.27176e+231
	DD	07006d202H
	DB	02H
xdata	ENDS
;	COMDAT xdata
xdata	SEGMENT
$stateUnwindMap$?petla_przed@@YA_JV?$basic_string@DU?$char_traits@D@std@@V?$allocator@D@2@@std@@FF@Z DW 0c06H
	DD	imagerel ??1?$basic_string@DU?$char_traits@D@std@@V?$allocator@D@2@@std@@QEAA@XZ
	DW	0201H
	DB	03cH
	DD	imagerel ??1?$basic_string@DU?$char_traits@D@std@@V?$allocator@D@2@@std@@QEAA@XZ
	DW	06cf0H
	DD	imagerel ??1?$basic_string@DU?$char_traits@D@std@@V?$allocator@D@2@@std@@QEAA@XZ
	DB	080H
xdata	ENDS
;	COMDAT xdata
xdata	SEGMENT
$cppxdata$?petla_przed@@YA_JV?$basic_string@DU?$char_traits@D@std@@V?$allocator@D@2@@std@@FF@Z DB 028H
	DD	imagerel $stateUnwindMap$?petla_przed@@YA_JV?$basic_string@DU?$char_traits@D@std@@V?$allocator@D@2@@std@@FF@Z
	DD	imagerel $ip2state$?petla_przed@@YA_JV?$basic_string@DU?$char_traits@D@std@@V?$allocator@D@2@@std@@FF@Z
xdata	ENDS
;	COMDAT xdata
xdata	SEGMENT
$unwind$?petla_przed@@YA_JV?$basic_string@DU?$char_traits@D@std@@V?$allocator@D@2@@std@@FF@Z DQ 000096824000d3219r ; 1.30818e-308
	DQ	00014011c001e341cr		; 2.78194e-308
	DQ	0c00ad00ce00ef010r		; -3.35159
	DQ	00000500660077008r		; 4.3472e-310
	DD	imagerel __GSHandlerCheck_EH4
	DD	imagerel $cppxdata$?petla_przed@@YA_JV?$basic_string@DU?$char_traits@D@std@@V?$allocator@D@2@@std@@FF@Z
	DD	08aH
xdata	ENDS
;	COMDAT xdata
xdata	SEGMENT
$unwind$?substr@?$basic_string@DU?$char_traits@D@std@@V?$allocator@D@2@@std@@QEBA?AV12@_K0@Z DQ 03002520600020601r ; 1.97773e-77
xdata	ENDS
;	COMDAT xdata
xdata	SEGMENT
$unwind$?find_first_of@?$basic_string@DU?$char_traits@D@std@@V?$allocator@D@2@@std@@QEBA_KD_K@Z DQ 03002320600020601r ; 1.96423e-77
xdata	ENDS
;	COMDAT xdata
xdata	SEGMENT
$unwind$?find@?$basic_string@DU?$char_traits@D@std@@V?$allocator@D@2@@std@@QEBA_KD_K@Z DQ 03002320600020601r ; 1.96423e-77
xdata	ENDS
;	COMDAT xdata
xdata	SEGMENT
$unwind$?replace@?$basic_string@DU?$char_traits@D@std@@V?$allocator@D@2@@std@@QEAAAEAV12@_K0AEBV12@@Z DQ 00000620400010401r ; 5.32451e-310
xdata	ENDS
;	COMDAT xdata
xdata	SEGMENT
$unwind$?erase@?$basic_string@DU?$char_traits@D@std@@V?$allocator@D@2@@std@@QEAAAEAV12@_K_K@Z DQ 03002320600020601r ; 1.96423e-77
xdata	ENDS
;	COMDAT xdata
xdata	SEGMENT
$unwind$??4?$basic_string@DU?$char_traits@D@std@@V?$allocator@D@2@@std@@QEAAAEAV01@AEBV01@@Z DQ 03002320600020601r ; 1.96423e-77
xdata	ENDS
;	COMDAT xdata
xdata	SEGMENT
$unwind$??1?$basic_string@DU?$char_traits@D@std@@V?$allocator@D@2@@std@@QEAA@XZ DQ 03002320600020601r ; 1.96423e-77
xdata	ENDS
;	COMDAT xdata
xdata	SEGMENT
$unwind$??4?$basic_string@DU?$char_traits@D@std@@V?$allocator@D@2@@std@@QEAAAEAV01@$$QEAV01@@Z DQ 00008340a00040a01r ; 1.14081e-308
	DD	07006320aH
xdata	ENDS
;	COMDAT xdata
xdata	SEGMENT
$unwind$??0?$basic_string@DU?$char_traits@D@std@@V?$allocator@D@2@@std@@QEAA@_KD@Z DQ 03002320600020601r ; 1.96423e-77
xdata	ENDS
;	COMDAT xdata
xdata	SEGMENT
$unwind$??0?$basic_string@DU?$char_traits@D@std@@V?$allocator@D@2@@std@@QEAA@QEBD@Z DQ 03002320600020601r ; 1.96423e-77
xdata	ENDS
;	COMDAT xdata
xdata	SEGMENT
$unwind$??0?$basic_string@DU?$char_traits@D@std@@V?$allocator@D@2@@std@@QEAA@AEBV01@@Z DQ 0000a642b00062b01r ; 1.44509e-308
	DQ	03002500370043208r		; 1.97688e-77
xdata	ENDS
;	COMDAT xdata
xdata	SEGMENT
$ip2state$??1sentry@?$basic_ostream@DU?$char_traits@D@std@@@std@@QEAA@XZ DD 03c002c04H
	DB	02H
xdata	ENDS
;	COMDAT xdata
xdata	SEGMENT
$stateUnwindMap$??1sentry@?$basic_ostream@DU?$char_traits@D@std@@@std@@QEAA@XZ DW 0e02H
	DD	imagerel __std_terminate
xdata	ENDS
;	COMDAT xdata
xdata	SEGMENT
$cppxdata$??1sentry@?$basic_ostream@DU?$char_traits@D@std@@@std@@QEAA@XZ DB 068H
	DD	imagerel $stateUnwindMap$??1sentry@?$basic_ostream@DU?$char_traits@D@std@@@std@@QEAA@XZ
	DD	imagerel $ip2state$??1sentry@?$basic_ostream@DU?$char_traits@D@std@@@std@@QEAA@XZ
xdata	ENDS
;	COMDAT xdata
xdata	SEGMENT
$unwind$??1sentry@?$basic_ostream@DU?$char_traits@D@std@@@std@@QEAA@XZ DQ 03002320600020619r ; 1.96423e-77
	DD	imagerel __CxxFrameHandler4
	DD	imagerel $cppxdata$??1sentry@?$basic_ostream@DU?$char_traits@D@std@@@std@@QEAA@XZ
xdata	ENDS
;	COMDAT xdata
xdata	SEGMENT
$ip2state$??0sentry@?$basic_ostream@DU?$char_traits@D@std@@@std@@QEAA@AEAV12@@Z DD 048005804H
	DB	02H
xdata	ENDS
;	COMDAT xdata
xdata	SEGMENT
$stateUnwindMap$??0sentry@?$basic_ostream@DU?$char_traits@D@std@@@std@@QEAA@AEAV12@@Z DW 0c02H
	DD	imagerel ??1_Sentry_base@?$basic_ostream@DU?$char_traits@D@std@@@std@@QEAA@XZ
	DB	060H
xdata	ENDS
;	COMDAT xdata
xdata	SEGMENT
$cppxdata$??0sentry@?$basic_ostream@DU?$char_traits@D@std@@@std@@QEAA@AEAV12@@Z DB 028H
	DD	imagerel $stateUnwindMap$??0sentry@?$basic_ostream@DU?$char_traits@D@std@@@std@@QEAA@AEAV12@@Z
	DD	imagerel $ip2state$??0sentry@?$basic_ostream@DU?$char_traits@D@std@@@std@@QEAA@AEAV12@@Z
xdata	ENDS
;	COMDAT xdata
xdata	SEGMENT
$unwind$??0sentry@?$basic_ostream@DU?$char_traits@D@std@@@std@@QEAA@AEAV12@@Z DQ 00007340f00040f11r ; 1.00175e-308
	DD	0700b320fH
	DD	imagerel __CxxFrameHandler4
	DD	imagerel $cppxdata$??0sentry@?$basic_ostream@DU?$char_traits@D@std@@@std@@QEAA@AEAV12@@Z
xdata	ENDS
;	COMDAT xdata
xdata	SEGMENT
$unwind$?_Tidy_deallocate@?$basic_string@DU?$char_traits@D@std@@V?$allocator@D@2@@std@@AEAAXXZ DQ 03002320600020601r ; 1.96423e-77
xdata	ENDS
;	COMDAT xdata
xdata	SEGMENT
$unwind$??R<lambda_319d5e083f45f90dcdce5dce53cbb275>@@QEBAXQEADQEBD_KD@Z DQ 00006340a00040a01r ; 8.62672e-309
	DD	07006320aH
xdata	ENDS
;	COMDAT xdata
xdata	SEGMENT
$chain$4$?replace@?$basic_string@DU?$char_traits@D@std@@V?$allocator@D@2@@std@@QEAAAEAV12@_K_KQEBD0@Z DD 021H
	DD	imagerel $LN51@replace
	DD	imagerel $LN51@replace+190
	DD	imagerel $unwind$?replace@?$basic_string@DU?$char_traits@D@std@@V?$allocator@D@2@@std@@QEAAAEAV12@_K_KQEBD0@Z
xdata	ENDS
;	COMDAT xdata
xdata	SEGMENT
$chain$3$?replace@?$basic_string@DU?$char_traits@D@std@@V?$allocator@D@2@@std@@QEAAAEAV12@_K_KQEBD0@Z DQ 0000ac40500020521r ; 1.49716e-308
	DD	imagerel $LN51@replace
	DD	imagerel $LN51@replace+190
	DD	imagerel $unwind$?replace@?$basic_string@DU?$char_traits@D@std@@V?$allocator@D@2@@std@@QEAAAEAV12@_K_KQEBD0@Z
xdata	ENDS
;	COMDAT xdata
xdata	SEGMENT
$unwind$?replace@?$basic_string@DU?$char_traits@D@std@@V?$allocator@D@2@@std@@QEAAAEAV12@_K_KQEBD0@Z DQ 00008f465000b6501r ; 1.2453e-308
	DQ	0001154580009d45dr		; 2.40996e-308
	DQ	060037004e006a20ar		; 3.25769e+154
	DD	03002H
xdata	ENDS
;	COMDAT xdata
xdata	SEGMENT
$unwind$??R<lambda_16d2cb92461ac9818af78a76c749bd7f>@@QEBAXQEADQEBD_K2212@Z DQ 00008641400081401r ; 1.1669e-308
	DQ	00006341400075414r		; 8.62693e-309
	DD	070103214H
xdata	ENDS
;	COMDAT xdata
xdata	SEGMENT
$chain$3$?assign@?$basic_string@DU?$char_traits@D@std@@V?$allocator@D@2@@std@@QEAAAEAV12@_KD@Z DD 021H
	DD	imagerel $LN77@assign
	DD	imagerel $LN77@assign+141
	DD	imagerel $unwind$?assign@?$basic_string@DU?$char_traits@D@std@@V?$allocator@D@2@@std@@QEAAAEAV12@_KD@Z
xdata	ENDS
;	COMDAT xdata
xdata	SEGMENT
$chain$2$?assign@?$basic_string@DU?$char_traits@D@std@@V?$allocator@D@2@@std@@QEAAAEAV12@_KD@Z DQ 0000ae40000020021r ; 1.51453e-308
	DD	imagerel $LN77@assign
	DD	imagerel $LN77@assign+141
	DD	imagerel $unwind$?assign@?$basic_string@DU?$char_traits@D@std@@V?$allocator@D@2@@std@@QEAAAEAV12@_KD@Z
xdata	ENDS
;	COMDAT xdata
xdata	SEGMENT
$chain$0$?assign@?$basic_string@DU?$char_traits@D@std@@V?$allocator@D@2@@std@@QEAAAEAV12@_KD@Z DQ 0000ae40500020521r ; 1.51454e-308
	DD	imagerel $LN77@assign
	DD	imagerel $LN77@assign+141
	DD	imagerel $unwind$?assign@?$basic_string@DU?$char_traits@D@std@@V?$allocator@D@2@@std@@QEAAAEAV12@_KD@Z
xdata	ENDS
;	COMDAT xdata
xdata	SEGMENT
$unwind$?assign@?$basic_string@DU?$char_traits@D@std@@V?$allocator@D@2@@std@@QEAAAEAV12@_KD@Z DQ 0000b340c00060c01r ; 1.55801e-308
	DQ	0500660077008320cr		; 3.23858e+77
xdata	ENDS
;	COMDAT xdata
xdata	SEGMENT
$unwind$??R<lambda_138c3d7c38c85abb84c7fc7bfe5747b7>@@QEBAXQEAD_KD@Z DQ 00006340a00040a01r ; 8.62672e-309
	DD	07006320aH
xdata	ENDS
;	COMDAT xdata
xdata	SEGMENT
$chain$3$?assign@?$basic_string@DU?$char_traits@D@std@@V?$allocator@D@2@@std@@QEAAAEAV12@QEBD_K@Z DD 021H
	DD	imagerel $LN77@assign
	DD	imagerel $LN77@assign+139
	DD	imagerel $unwind$?assign@?$basic_string@DU?$char_traits@D@std@@V?$allocator@D@2@@std@@QEAAAEAV12@QEBD_K@Z
xdata	ENDS
;	COMDAT xdata
xdata	SEGMENT
$chain$2$?assign@?$basic_string@DU?$char_traits@D@std@@V?$allocator@D@2@@std@@QEAAAEAV12@QEBD_K@Z DQ 0000d640000020021r ; 1.8622e-308
	DD	imagerel $LN77@assign
	DD	imagerel $LN77@assign+139
	DD	imagerel $unwind$?assign@?$basic_string@DU?$char_traits@D@std@@V?$allocator@D@2@@std@@QEAAAEAV12@QEBD_K@Z
xdata	ENDS
;	COMDAT xdata
xdata	SEGMENT
$chain$0$?assign@?$basic_string@DU?$char_traits@D@std@@V?$allocator@D@2@@std@@QEAAAEAV12@QEBD_K@Z DQ 0000d640500020521r ; 1.86221e-308
	DD	imagerel $LN77@assign
	DD	imagerel $LN77@assign+139
	DD	imagerel $unwind$?assign@?$basic_string@DU?$char_traits@D@std@@V?$allocator@D@2@@std@@QEAAAEAV12@QEBD_K@Z
xdata	ENDS
;	COMDAT xdata
xdata	SEGMENT
$unwind$?assign@?$basic_string@DU?$char_traits@D@std@@V?$allocator@D@2@@std@@QEAAAEAV12@QEBD_K@Z DQ 0f008320c00060c01r ; -4.69549e+231
	DQ	0300250037004e006r		; 1.97688e-77
xdata	ENDS
;	COMDAT xdata
xdata	SEGMENT
$unwind$??R<lambda_66f57f934f28d61049862f64df852ff0>@@QEBAXQEAD_KQEBD@Z DQ 00006340a00040a01r ; 8.62672e-309
	DD	07006320aH
xdata	ENDS
;	COMDAT xdata
xdata	SEGMENT
$unwind$?_Construct_lv_contents@?$basic_string@DU?$char_traits@D@std@@V?$allocator@D@2@@std@@AEAAXAEBV12@@Z DQ 00006545000085001r ; 8.80204e-309
	DQ	00007340f0008640fr		; 1.00175e-308
	DD	0700b320fH
xdata	ENDS
;	COMDAT xdata
xdata	SEGMENT
$unwind$?_Move_assign@?$basic_string@DU?$char_traits@D@std@@V?$allocator@D@2@@std@@AEAAXAEAV12@U_Equal_allocators@2@@Z DQ 00008340a00040a01r ; 1.14081e-308
	DD	07006320aH
xdata	ENDS
;	COMDAT xdata
xdata	SEGMENT
$unwind$??0?$basic_string@DU?$char_traits@D@std@@V?$allocator@D@2@@std@@QEAA@AEBV01@_K1AEBV?$allocator@D@1@@Z DQ 03002320600020601r ; 1.96423e-77
xdata	ENDS
;	COMDAT xdata
xdata	SEGMENT
$unwind$?_Check_offset@?$_String_val@U?$_Simple_types@D@std@@@std@@QEBAX_K@Z DQ 00000420400010401r ; 3.58617e-310
xdata	ENDS
;	COMDAT xdata
xdata	SEGMENT
$unwind$?copy@?$_Narrow_char_traits@DH@std@@SAPEADQEADQEBD_K@Z DQ 03002320600020601r ; 1.96423e-77
xdata	ENDS
;	COMDAT xdata
xdata	SEGMENT
$ip2state$??1_Sentry_base@?$basic_ostream@DU?$char_traits@D@std@@@std@@QEAA@XZ DW 03602H
	DB	00H
xdata	ENDS
;	COMDAT xdata
xdata	SEGMENT
$cppxdata$??1_Sentry_base@?$basic_ostream@DU?$char_traits@D@std@@@std@@QEAA@XZ DB 060H
	DD	imagerel $ip2state$??1_Sentry_base@?$basic_ostream@DU?$char_traits@D@std@@@std@@QEAA@XZ
xdata	ENDS
;	COMDAT xdata
xdata	SEGMENT
$unwind$??1_Sentry_base@?$basic_ostream@DU?$char_traits@D@std@@@std@@QEAA@XZ DQ 00000420400010419r ; 3.58617e-310
	DD	imagerel __CxxFrameHandler4
	DD	imagerel $cppxdata$??1_Sentry_base@?$basic_ostream@DU?$char_traits@D@std@@@std@@QEAA@XZ
xdata	ENDS
;	COMDAT xdata
xdata	SEGMENT
$unwind$??0_Sentry_base@?$basic_ostream@DU?$char_traits@D@std@@@std@@QEAA@AEAV12@@Z DQ 03002320600020601r ; 1.96423e-77
xdata	ENDS
;	COMDAT xdata
xdata	SEGMENT
$unwind$?assign@?$basic_string@DU?$char_traits@D@std@@V?$allocator@D@2@@std@@QEAAAEAV12@AEBV12@_K_K@Z DQ 00000420400010401r ; 3.58617e-310
xdata	ENDS
;	COMDAT xdata
xdata	SEGMENT
$unwind$?_Xran@?$_String_val@U?$_Simple_types@D@std@@@std@@SAXXZ DQ 00000420400010401r ; 3.58617e-310
xdata	ENDS
;	COMDAT xdata
xdata	SEGMENT
$unwind$?allocate@?$allocator@D@std@@QEAAPEAD_K@Z DQ 00000420400010401r ; 3.58617e-310
xdata	ENDS
;	COMDAT xdata
xdata	SEGMENT
$unwind$?deallocate@?$allocator@D@std@@QEAAXQEAD_K@Z DQ 00000420400010401r ; 3.58617e-310
xdata	ENDS
;	COMDAT xdata
xdata	SEGMENT
$unwind$?assign@?$_Narrow_char_traits@DH@std@@SAPEADQEAD_KD@Z DQ 03002320600020601r ; 1.96423e-77
xdata	ENDS
;	COMDAT xdata
xdata	SEGMENT
$ip2state$??$use_facet@V?$ctype@D@std@@@std@@YAAEBV?$ctype@D@0@AEBVlocale@0@@Z DQ 056003a04d6028408r ; 1.86079e+106
	DB	02H
xdata	ENDS
;	COMDAT xdata
xdata	SEGMENT
$stateUnwindMap$??$use_facet@V?$ctype@D@std@@@std@@YAAEBV?$ctype@D@0@AEBVlocale@0@@Z DW 0a04H
	DD	imagerel ??1_Lockit@std@@QEAA@XZ
	DW	03250H
	DD	imagerel ??1?$unique_ptr@V_Facet_base@std@@U?$default_delete@V_Facet_base@std@@@2@@std@@QEAA@XZ
	DB	060H
xdata	ENDS
;	COMDAT xdata
xdata	SEGMENT
$cppxdata$??$use_facet@V?$ctype@D@std@@@std@@YAAEBV?$ctype@D@0@AEBVlocale@0@@Z DB 028H
	DD	imagerel $stateUnwindMap$??$use_facet@V?$ctype@D@std@@@std@@YAAEBV?$ctype@D@0@AEBVlocale@0@@Z
	DD	imagerel $ip2state$??$use_facet@V?$ctype@D@std@@@std@@YAAEBV?$ctype@D@0@AEBVlocale@0@@Z
xdata	ENDS
;	COMDAT xdata
xdata	SEGMENT
$unwind$??$use_facet@V?$ctype@D@std@@@std@@YAAEBV?$ctype@D@0@AEBVlocale@0@@Z DQ 0000c640f00061e19r ; 1.72316e-308
	DQ	0700b720f000b340fr		; 5.32621e+231
	DD	imagerel __GSHandlerCheck_EH4
	DD	imagerel $cppxdata$??$use_facet@V?$ctype@D@std@@@std@@YAAEBV?$ctype@D@0@AEBVlocale@0@@Z
	DD	03aH
xdata	ENDS
;	COMDAT xdata
xdata	SEGMENT
$unwind$?catch$4@?0???$?6U?$char_traits@D@std@@@std@@YAAEAV?$basic_ostream@DU?$char_traits@D@std@@@0@AEAV10@D@Z@4HA DQ 05006320a00020a01r ; 3.21257e+77
xdata	ENDS
;	COMDAT xdata
xdata	SEGMENT
$ip2state$??$?6U?$char_traits@D@std@@@std@@YAAEAV?$basic_ostream@DU?$char_traits@D@std@@@0@AEAV10@D@Z DQ 0c606ee0248007e0er ; -2.27085e+29
	DD	0280a6c04H
	DW	0300cH
	DB	00H
xdata	ENDS
;	COMDAT xdata
xdata	SEGMENT
$handlerMap$??$?6U?$char_traits@D@std@@@std@@YAAEAV?$basic_ostream@DU?$char_traits@D@std@@@0@AEAV10@D@Z DW 01102H
	DB	080H
	DD	imagerel ?catch$4@?0???$?6U?$char_traits@D@std@@@std@@YAAEAV?$basic_ostream@DU?$char_traits@D@std@@@0@AEAV10@D@Z@4HA
	DW	04fdH
xdata	ENDS
;	COMDAT xdata
xdata	SEGMENT
$tryMap$??$?6U?$char_traits@D@std@@@std@@YAAEAV?$basic_ostream@DU?$char_traits@D@std@@@0@AEAV10@D@Z DD 06040402H
	DD	imagerel $handlerMap$??$?6U?$char_traits@D@std@@@std@@YAAEAV?$basic_ostream@DU?$char_traits@D@std@@@0@AEAV10@D@Z
xdata	ENDS
;	COMDAT xdata
xdata	SEGMENT
$stateUnwindMap$??$?6U?$char_traits@D@std@@@std@@YAAEAV?$basic_ostream@DU?$char_traits@D@std@@@0@AEAV10@D@Z DW 0a0cH
	DD	imagerel ??1_Sentry_base@?$basic_ostream@DU?$char_traits@D@std@@@std@@QEAA@XZ
	DW	03a40H
	DD	imagerel ??1sentry@?$basic_ostream@DU?$char_traits@D@std@@@std@@QEAA@XZ
	DD	07e383040H
	DD	imagerel __std_terminate
	DB	02eH
	DD	imagerel __std_terminate
xdata	ENDS
;	COMDAT xdata
xdata	SEGMENT
$cppxdata$??$?6U?$char_traits@D@std@@@std@@YAAEAV?$basic_ostream@DU?$char_traits@D@std@@@0@AEAV10@D@Z DB 038H
	DD	imagerel $stateUnwindMap$??$?6U?$char_traits@D@std@@@std@@YAAEAV?$basic_ostream@DU?$char_traits@D@std@@@0@AEAV10@D@Z
	DD	imagerel $tryMap$??$?6U?$char_traits@D@std@@@std@@YAAEAV?$basic_ostream@DU?$char_traits@D@std@@@0@AEAV10@D@Z
	DD	imagerel $ip2state$??$?6U?$char_traits@D@std@@@std@@YAAEAV?$basic_ostream@DU?$char_traits@D@std@@@0@AEAV10@D@Z
xdata	ENDS
;	COMDAT xdata
xdata	SEGMENT
$unwind$??$?6U?$char_traits@D@std@@@std@@YAAEAV?$basic_ostream@DU?$char_traits@D@std@@@0@AEAV10@D@Z DQ 0000d341600081619r ; 1.83617e-308
	DQ	0c00ee010f0125216r		; -3.85941
	DD	0600b700cH
	DD	imagerel __CxxFrameHandler4
	DD	imagerel $cppxdata$??$?6U?$char_traits@D@std@@@std@@YAAEAV?$basic_ostream@DU?$char_traits@D@std@@@0@AEAV10@D@Z
xdata	ENDS
;	COMDAT xdata
xdata	SEGMENT
$unwind$?catch$4@?0???$?6U?$char_traits@D@std@@@std@@YAAEAV?$basic_ostream@DU?$char_traits@D@std@@@0@AEAV10@PEBD@Z@4HA DQ 05006320a00020a01r ; 3.21257e+77
xdata	ENDS
;	COMDAT xdata
xdata	SEGMENT
$ip2state$??$?6U?$char_traits@D@std@@@std@@YAAEAV?$basic_ostream@DU?$char_traits@D@std@@@0@AEAV10@PEBD@Z DQ 0d806b6025400e20er ; -1.11857e+116
	DD	0280a4c04H
	DW	0320cH
	DB	00H
xdata	ENDS
;	COMDAT xdata
xdata	SEGMENT
$handlerMap$??$?6U?$char_traits@D@std@@@std@@YAAEAV?$basic_ostream@DU?$char_traits@D@std@@@0@AEAV10@PEBD@Z DW 01102H
	DB	080H
	DD	imagerel ?catch$4@?0???$?6U?$char_traits@D@std@@@std@@YAAEAV?$basic_ostream@DU?$char_traits@D@std@@@0@AEAV10@PEBD@Z@4HA
	DW	0591H
xdata	ENDS
;	COMDAT xdata
xdata	SEGMENT
$tryMap$??$?6U?$char_traits@D@std@@@std@@YAAEAV?$basic_ostream@DU?$char_traits@D@std@@@0@AEAV10@PEBD@Z DD 06040402H
	DD	imagerel $handlerMap$??$?6U?$char_traits@D@std@@@std@@YAAEAV?$basic_ostream@DU?$char_traits@D@std@@@0@AEAV10@PEBD@Z
xdata	ENDS
;	COMDAT xdata
xdata	SEGMENT
$stateUnwindMap$??$?6U?$char_traits@D@std@@@std@@YAAEAV?$basic_ostream@DU?$char_traits@D@std@@@0@AEAV10@PEBD@Z DW 0a0cH
	DD	imagerel ??1_Sentry_base@?$basic_ostream@DU?$char_traits@D@std@@@std@@QEAA@XZ
	DW	03a40H
	DD	imagerel ??1sentry@?$basic_ostream@DU?$char_traits@D@std@@@std@@QEAA@XZ
	DD	07e383040H
	DD	imagerel __std_terminate
	DB	02eH
	DD	imagerel __std_terminate
xdata	ENDS
;	COMDAT xdata
xdata	SEGMENT
$cppxdata$??$?6U?$char_traits@D@std@@@std@@YAAEAV?$basic_ostream@DU?$char_traits@D@std@@@0@AEAV10@PEBD@Z DB 038H
	DD	imagerel $stateUnwindMap$??$?6U?$char_traits@D@std@@@std@@YAAEAV?$basic_ostream@DU?$char_traits@D@std@@@0@AEAV10@PEBD@Z
	DD	imagerel $tryMap$??$?6U?$char_traits@D@std@@@std@@YAAEAV?$basic_ostream@DU?$char_traits@D@std@@@0@AEAV10@PEBD@Z
	DD	imagerel $ip2state$??$?6U?$char_traits@D@std@@@std@@YAAEAV?$basic_ostream@DU?$char_traits@D@std@@@0@AEAV10@PEBD@Z
xdata	ENDS
;	COMDAT xdata
xdata	SEGMENT
$unwind$??$?6U?$char_traits@D@std@@@std@@YAAEAV?$basic_ostream@DU?$char_traits@D@std@@@0@AEAV10@PEBD@Z DQ 0000d341600081619r ; 1.83617e-308
	DQ	0c00ee010f0125216r		; -3.85941
	DD	0600b700cH
	DD	imagerel __CxxFrameHandler4
	DD	imagerel $cppxdata$??$?6U?$char_traits@D@std@@@std@@YAAEAV?$basic_ostream@DU?$char_traits@D@std@@@0@AEAV10@PEBD@Z
xdata	ENDS
;	COMDAT xdata
xdata	SEGMENT
$unwind$??$endl@DU?$char_traits@D@std@@@std@@YAAEAV?$basic_ostream@DU?$char_traits@D@std@@@0@AEAV10@@Z DQ 03002320600020601r ; 1.96423e-77
xdata	ENDS
;	COMDAT xdata
xdata	SEGMENT
$unwind$??$?6DU?$char_traits@D@std@@_J@std@@YAAEAV?$basic_ostream@DU?$char_traits@D@std@@@0@AEAV10@AEBU?$_Smanip@_J@0@@Z DQ 03002320600020601r ; 1.96423e-77
xdata	ENDS
;	COMDAT xdata
xdata	SEGMENT
$unwind$??$_Traits_find_ch@U?$char_traits@D@std@@@std@@YA_KQEBD_K1D@Z DQ 03002320600020601r ; 1.96423e-77
xdata	ENDS
;	COMDAT xdata
xdata	SEGMENT
$chain$5$??$_Reallocate_grow_by@V<lambda_319d5e083f45f90dcdce5dce53cbb275>@@D@?$basic_string@DU?$char_traits@D@std@@V?$allocator@D@2@@std@@AEAAAEAV01@_KV<lambda_319d5e083f45f90dcdce5dce53cbb275>@@D@Z DD 021H
	DD	imagerel $LN71@Reallocate
	DD	imagerel $LN71@Reallocate+47
	DD	imagerel $unwind$??$_Reallocate_grow_by@V<lambda_319d5e083f45f90dcdce5dce53cbb275>@@D@?$basic_string@DU?$char_traits@D@std@@V?$allocator@D@2@@std@@AEAAAEAV01@_KV<lambda_319d5e083f45f90dcdce5dce53cbb275>@@D@Z
xdata	ENDS
;	COMDAT xdata
xdata	SEGMENT
$chain$4$??$_Reallocate_grow_by@V<lambda_319d5e083f45f90dcdce5dce53cbb275>@@D@?$basic_string@DU?$char_traits@D@std@@V?$allocator@D@2@@std@@AEAAAEAV01@_KV<lambda_319d5e083f45f90dcdce5dce53cbb275>@@D@Z DQ 00004e40000060021r ; 6.80125e-309
	DQ	0000b7400000cc400r		; 1.59275e-308
	DD	imagerel $LN71@Reallocate
	DD	imagerel $LN71@Reallocate+47
	DD	imagerel $unwind$??$_Reallocate_grow_by@V<lambda_319d5e083f45f90dcdce5dce53cbb275>@@D@?$basic_string@DU?$char_traits@D@std@@V?$allocator@D@2@@std@@AEAAAEAV01@_KV<lambda_319d5e083f45f90dcdce5dce53cbb275>@@D@Z
xdata	ENDS
;	COMDAT xdata
xdata	SEGMENT
$chain$2$??$_Reallocate_grow_by@V<lambda_319d5e083f45f90dcdce5dce53cbb275>@@D@?$basic_string@DU?$char_traits@D@std@@V?$allocator@D@2@@std@@AEAAAEAV01@_KV<lambda_319d5e083f45f90dcdce5dce53cbb275>@@D@Z DQ 0000b744500064521r ; 1.5929e-308
	DQ	0000cc4050004e40er		; 1.77529e-308
	DD	imagerel $LN71@Reallocate
	DD	imagerel $LN71@Reallocate+47
	DD	imagerel $unwind$??$_Reallocate_grow_by@V<lambda_319d5e083f45f90dcdce5dce53cbb275>@@D@?$basic_string@DU?$char_traits@D@std@@V?$allocator@D@2@@std@@AEAAAEAV01@_KV<lambda_319d5e083f45f90dcdce5dce53cbb275>@@D@Z
xdata	ENDS
;	COMDAT xdata
xdata	SEGMENT
$unwind$??$_Reallocate_grow_by@V<lambda_319d5e083f45f90dcdce5dce53cbb275>@@D@?$basic_string@DU?$char_traits@D@std@@V?$allocator@D@2@@std@@AEAAAEAV01@_KV<lambda_319d5e083f45f90dcdce5dce53cbb275>@@D@Z DQ 0f006420a00050a01r ; -4.31949e+231
	DQ	00000300250036004r		; 2.608e-310
xdata	ENDS
;	COMDAT xdata
xdata	SEGMENT
$chain$6$??$_Reallocate_grow_by@V<lambda_16d2cb92461ac9818af78a76c749bd7f>@@_K_KPEBD_K@?$basic_string@DU?$char_traits@D@std@@V?$allocator@D@2@@std@@AEAAAEAV01@_KV<lambda_16d2cb92461ac9818af78a76c749bd7f>@@_K2PEBD2@Z DD 021H
	DD	imagerel $LN80@Reallocate
	DD	imagerel $LN80@Reallocate+51
	DD	imagerel $unwind$??$_Reallocate_grow_by@V<lambda_16d2cb92461ac9818af78a76c749bd7f>@@_K_KPEBD_K@?$basic_string@DU?$char_traits@D@std@@V?$allocator@D@2@@std@@AEAAAEAV01@_KV<lambda_16d2cb92461ac9818af78a76c749bd7f>@@_K2PEBD2@Z
xdata	ENDS
;	COMDAT xdata
xdata	SEGMENT
$chain$5$??$_Reallocate_grow_by@V<lambda_16d2cb92461ac9818af78a76c749bd7f>@@_K_KPEBD_K@?$basic_string@DU?$char_traits@D@std@@V?$allocator@D@2@@std@@AEAAAEAV01@_KV<lambda_16d2cb92461ac9818af78a76c749bd7f>@@_K2PEBD2@Z DQ 00004e40000080021r ; 6.80125e-309
	DQ	0000674000005c400r		; 8.97417e-309
	DD	0e5400H
	DD	imagerel $LN80@Reallocate
	DD	imagerel $LN80@Reallocate+51
	DD	imagerel $unwind$??$_Reallocate_grow_by@V<lambda_16d2cb92461ac9818af78a76c749bd7f>@@_K_KPEBD_K@?$basic_string@DU?$char_traits@D@std@@V?$allocator@D@2@@std@@AEAAAEAV01@_KV<lambda_16d2cb92461ac9818af78a76c749bd7f>@@_K2PEBD2@Z
xdata	ENDS
;	COMDAT xdata
xdata	SEGMENT
$chain$3$??$_Reallocate_grow_by@V<lambda_16d2cb92461ac9818af78a76c749bd7f>@@_K_KPEBD_K@?$basic_string@DU?$char_traits@D@std@@V?$allocator@D@2@@std@@AEAAAEAV01@_KV<lambda_16d2cb92461ac9818af78a76c749bd7f>@@_K2PEBD2@Z DQ 00005c44e00084e21r ; 8.01974e-309
	DQ	00004e40e00067445r		; 6.80155e-309
	DD	0e5405H
	DD	imagerel $LN80@Reallocate
	DD	imagerel $LN80@Reallocate+51
	DD	imagerel $unwind$??$_Reallocate_grow_by@V<lambda_16d2cb92461ac9818af78a76c749bd7f>@@_K_KPEBD_K@?$basic_string@DU?$char_traits@D@std@@V?$allocator@D@2@@std@@AEAAAEAV01@_KV<lambda_16d2cb92461ac9818af78a76c749bd7f>@@_K2PEBD2@Z
xdata	ENDS
;	COMDAT xdata
xdata	SEGMENT
$unwind$??$_Reallocate_grow_by@V<lambda_16d2cb92461ac9818af78a76c749bd7f>@@_K_KPEBD_K@?$basic_string@DU?$char_traits@D@std@@V?$allocator@D@2@@std@@AEAAAEAV01@_KV<lambda_16d2cb92461ac9818af78a76c749bd7f>@@_K2PEBD2@Z DQ 0f007620b00050b01r ; -4.53781e+231
	DQ	0000030026003d005r		; 2.60801e-310
xdata	ENDS
;	COMDAT xdata
xdata	SEGMENT
$chain$4$??$_Reallocate_for@V<lambda_138c3d7c38c85abb84c7fc7bfe5747b7>@@D@?$basic_string@DU?$char_traits@D@std@@V?$allocator@D@2@@std@@AEAAAEAV01@_KV<lambda_138c3d7c38c85abb84c7fc7bfe5747b7>@@D@Z DD 021H
	DD	imagerel $LN66@Reallocate
	DD	imagerel $LN66@Reallocate+34
	DD	imagerel $unwind$??$_Reallocate_for@V<lambda_138c3d7c38c85abb84c7fc7bfe5747b7>@@D@?$basic_string@DU?$char_traits@D@std@@V?$allocator@D@2@@std@@AEAAAEAV01@_KV<lambda_138c3d7c38c85abb84c7fc7bfe5747b7>@@D@Z
xdata	ENDS
;	COMDAT xdata
xdata	SEGMENT
$chain$3$??$_Reallocate_for@V<lambda_138c3d7c38c85abb84c7fc7bfe5747b7>@@D@?$basic_string@DU?$char_traits@D@std@@V?$allocator@D@2@@std@@AEAAAEAV01@_KV<lambda_138c3d7c38c85abb84c7fc7bfe5747b7>@@D@Z DQ 0000b540000040021r ; 1.57537e-308
	DD	0a3400H
	DD	imagerel $LN66@Reallocate
	DD	imagerel $LN66@Reallocate+34
	DD	imagerel $unwind$??$_Reallocate_for@V<lambda_138c3d7c38c85abb84c7fc7bfe5747b7>@@D@?$basic_string@DU?$char_traits@D@std@@V?$allocator@D@2@@std@@AEAAAEAV01@_KV<lambda_138c3d7c38c85abb84c7fc7bfe5747b7>@@D@Z
xdata	ENDS
;	COMDAT xdata
xdata	SEGMENT
$chain$1$??$_Reallocate_for@V<lambda_138c3d7c38c85abb84c7fc7bfe5747b7>@@D@?$basic_string@DU?$char_traits@D@std@@V?$allocator@D@2@@std@@AEAAAEAV01@_KV<lambda_138c3d7c38c85abb84c7fc7bfe5747b7>@@D@Z DQ 0000a343c00043c21r ; 1.41905e-308
	DD	0b5405H
	DD	imagerel $LN66@Reallocate
	DD	imagerel $LN66@Reallocate+34
	DD	imagerel $unwind$??$_Reallocate_for@V<lambda_138c3d7c38c85abb84c7fc7bfe5747b7>@@D@?$basic_string@DU?$char_traits@D@std@@V?$allocator@D@2@@std@@AEAAAEAV01@_KV<lambda_138c3d7c38c85abb84c7fc7bfe5747b7>@@D@Z
xdata	ENDS
;	COMDAT xdata
xdata	SEGMENT
$unwind$??$_Reallocate_for@V<lambda_138c3d7c38c85abb84c7fc7bfe5747b7>@@D@?$basic_string@DU?$char_traits@D@std@@V?$allocator@D@2@@std@@AEAAAEAV01@_KV<lambda_138c3d7c38c85abb84c7fc7bfe5747b7>@@D@Z DQ 0e005320900040901r ; -3.55231e+154
	DD	060027003H
xdata	ENDS
;	COMDAT xdata
xdata	SEGMENT
$chain$4$??$_Reallocate_for@V<lambda_66f57f934f28d61049862f64df852ff0>@@PEBD@?$basic_string@DU?$char_traits@D@std@@V?$allocator@D@2@@std@@AEAAAEAV01@_KV<lambda_66f57f934f28d61049862f64df852ff0>@@PEBD@Z DD 021H
	DD	imagerel $LN66@Reallocate
	DD	imagerel $LN66@Reallocate+39
	DD	imagerel $unwind$??$_Reallocate_for@V<lambda_66f57f934f28d61049862f64df852ff0>@@PEBD@?$basic_string@DU?$char_traits@D@std@@V?$allocator@D@2@@std@@AEAAAEAV01@_KV<lambda_66f57f934f28d61049862f64df852ff0>@@PEBD@Z
xdata	ENDS
;	COMDAT xdata
xdata	SEGMENT
$chain$3$??$_Reallocate_for@V<lambda_66f57f934f28d61049862f64df852ff0>@@PEBD@?$basic_string@DU?$char_traits@D@std@@V?$allocator@D@2@@std@@AEAAAEAV01@_KV<lambda_66f57f934f28d61049862f64df852ff0>@@PEBD@Z DQ 00004540000040021r ; 6.019e-309
	DD	0c3400H
	DD	imagerel $LN66@Reallocate
	DD	imagerel $LN66@Reallocate+39
	DD	imagerel $unwind$??$_Reallocate_for@V<lambda_66f57f934f28d61049862f64df852ff0>@@PEBD@?$basic_string@DU?$char_traits@D@std@@V?$allocator@D@2@@std@@AEAAAEAV01@_KV<lambda_66f57f934f28d61049862f64df852ff0>@@PEBD@Z
xdata	ENDS
;	COMDAT xdata
xdata	SEGMENT
$chain$1$??$_Reallocate_for@V<lambda_66f57f934f28d61049862f64df852ff0>@@PEBD@?$basic_string@DU?$char_traits@D@std@@V?$allocator@D@2@@std@@AEAAAEAV01@_KV<lambda_66f57f934f28d61049862f64df852ff0>@@PEBD@Z DQ 0000c343c00043c21r ; 1.69718e-308
	DD	045405H
	DD	imagerel $LN66@Reallocate
	DD	imagerel $LN66@Reallocate+39
	DD	imagerel $unwind$??$_Reallocate_for@V<lambda_66f57f934f28d61049862f64df852ff0>@@PEBD@?$basic_string@DU?$char_traits@D@std@@V?$allocator@D@2@@std@@AEAAAEAV01@_KV<lambda_66f57f934f28d61049862f64df852ff0>@@PEBD@Z
xdata	ENDS
;	COMDAT xdata
xdata	SEGMENT
$unwind$??$_Reallocate_for@V<lambda_66f57f934f28d61049862f64df852ff0>@@PEBD@?$basic_string@DU?$char_traits@D@std@@V?$allocator@D@2@@std@@AEAAAEAV01@_KV<lambda_66f57f934f28d61049862f64df852ff0>@@PEBD@Z DQ 0f007420b00050b01r ; -4.51355e+231
	DQ	0000060027003e005r		; 5.21553e-310
xdata	ENDS
;	COMDAT xdata
xdata	SEGMENT
$unwind$??$_Deallocate@$0BA@$0A@@std@@YAXPEAX_K@Z DQ 00000420400010401r ; 3.58617e-310
xdata	ENDS
;	COMDAT xdata
xdata	SEGMENT
$unwind$??$_Allocate@$0BA@U_Default_allocate_traits@std@@$0A@@std@@YAPEAX_K@Z DQ 00000420400010401r ; 3.58617e-310
xdata	ENDS
;	COMDAT xdata
xdata	SEGMENT
$unwind$?catch$5@?0???$?5DU?$char_traits@D@std@@V?$allocator@D@1@@std@@YAAEAV?$basic_istream@DU?$char_traits@D@std@@@0@$$QEAV10@AEAV?$basic_string@DU?$char_traits@D@std@@V?$allocator@D@2@@0@@Z@4HA DQ 05006320a00020a01r ; 3.21257e+77
xdata	ENDS
;	COMDAT xdata
xdata	SEGMENT
$ip2state$??$?5DU?$char_traits@D@std@@V?$allocator@D@1@@std@@YAAEAV?$basic_istream@DU?$char_traits@D@std@@@0@$$QEAV10@AEAV?$basic_string@DU?$char_traits@D@std@@V?$allocator@D@2@@0@@Z DQ 01404420212009810r ; 3.00875e-212
	DQ	00c8404020508d406r		; 2.23647e-248
	DW	032H
xdata	ENDS
;	COMDAT xdata
xdata	SEGMENT
$handlerMap$??$?5DU?$char_traits@D@std@@V?$allocator@D@1@@std@@YAAEAV?$basic_istream@DU?$char_traits@D@std@@@0@$$QEAV10@AEAV?$basic_string@DU?$char_traits@D@std@@V?$allocator@D@2@@0@@Z DW 01102H
	DB	080H
	DD	imagerel ?catch$5@?0???$?5DU?$char_traits@D@std@@V?$allocator@D@1@@std@@YAAEAV?$basic_istream@DU?$char_traits@D@std@@@0@$$QEAV10@AEAV?$basic_string@DU?$char_traits@D@std@@V?$allocator@D@2@@0@@Z@4HA
	DW	05adH
xdata	ENDS
;	COMDAT xdata
xdata	SEGMENT
$tryMap$??$?5DU?$char_traits@D@std@@V?$allocator@D@1@@std@@YAAEAV?$basic_istream@DU?$char_traits@D@std@@@0@$$QEAV10@AEAV?$basic_string@DU?$char_traits@D@std@@V?$allocator@D@2@@0@@Z DD 08060602H
	DD	imagerel $handlerMap$??$?5DU?$char_traits@D@std@@V?$allocator@D@1@@std@@YAAEAV?$basic_istream@DU?$char_traits@D@std@@@0@$$QEAV10@AEAV?$basic_string@DU?$char_traits@D@std@@V?$allocator@D@2@@0@@Z
xdata	ENDS
;	COMDAT xdata
xdata	SEGMENT
$stateUnwindMap$??$?5DU?$char_traits@D@std@@V?$allocator@D@1@@std@@YAAEAV?$basic_istream@DU?$char_traits@D@std@@@0@$$QEAV10@AEAV?$basic_string@DU?$char_traits@D@std@@V?$allocator@D@2@@0@@Z DW 0a0cH
	DD	imagerel ??1_Sentry_base@?$basic_istream@DU?$char_traits@D@std@@@std@@QEAA@XZ
	DW	03a60H
	DD	imagerel ??1sentry@?$basic_istream@DU?$char_traits@D@std@@@std@@QEAA@XZ
	DW	03260H
	DD	imagerel ??1locale@std@@QEAA@XZ
	DD	0ae686080H
	DD	imagerel __std_terminate
xdata	ENDS
;	COMDAT xdata
xdata	SEGMENT
$cppxdata$??$?5DU?$char_traits@D@std@@V?$allocator@D@1@@std@@YAAEAV?$basic_istream@DU?$char_traits@D@std@@@0@$$QEAV10@AEAV?$basic_string@DU?$char_traits@D@std@@V?$allocator@D@2@@0@@Z DB 038H
	DD	imagerel $stateUnwindMap$??$?5DU?$char_traits@D@std@@V?$allocator@D@1@@std@@YAAEAV?$basic_istream@DU?$char_traits@D@std@@@0@$$QEAV10@AEAV?$basic_string@DU?$char_traits@D@std@@V?$allocator@D@2@@0@@Z
	DD	imagerel $tryMap$??$?5DU?$char_traits@D@std@@V?$allocator@D@1@@std@@YAAEAV?$basic_istream@DU?$char_traits@D@std@@@0@$$QEAV10@AEAV?$basic_string@DU?$char_traits@D@std@@V?$allocator@D@2@@0@@Z
	DD	imagerel $ip2state$??$?5DU?$char_traits@D@std@@V?$allocator@D@1@@std@@YAAEAV?$basic_istream@DU?$char_traits@D@std@@@0@$$QEAV10@AEAV?$basic_string@DU?$char_traits@D@std@@V?$allocator@D@2@@0@@Z
xdata	ENDS
;	COMDAT xdata
xdata	SEGMENT
$unwind$??$?5DU?$char_traits@D@std@@V?$allocator@D@1@@std@@YAAEAV?$basic_istream@DU?$char_traits@D@std@@@0@$$QEAV10@AEAV?$basic_string@DU?$char_traits@D@std@@V?$allocator@D@2@@0@@Z DQ 000136417000a1719r ; 2.69665e-308
	DQ	0f013921700123417r		; -7.59595e+231
	DQ	0700bc00dd00fe011r		; 5.38534e+231
	DD	imagerel __CxxFrameHandler4
	DD	imagerel $cppxdata$??$?5DU?$char_traits@D@std@@V?$allocator@D@1@@std@@YAAEAV?$basic_istream@DU?$char_traits@D@std@@@0@$$QEAV10@AEAV?$basic_string@DU?$char_traits@D@std@@V?$allocator@D@2@@0@@Z
xdata	ENDS
;	COMDAT xdata
xdata	SEGMENT
$unwind$?catch$4@?0???$_Insert_string@DU?$char_traits@D@std@@_K@std@@YAAEAV?$basic_ostream@DU?$char_traits@D@std@@@0@AEAV10@QEBD_K@Z@4HA DQ 05006320a00020a01r ; 3.21257e+77
xdata	ENDS
;	COMDAT xdata
xdata	SEGMENT
$ip2state$??$_Insert_string@DU?$char_traits@D@std@@_K@std@@YAAEAV?$basic_ostream@DU?$char_traits@D@std@@@0@AEAV10@QEBD_K@Z DQ 09806ae025400ba10r ; -6.2137e-193
	DQ	0360a280468063204r		; 2.23711e-48
	DB	0cH
xdata	ENDS
;	COMDAT xdata
xdata	SEGMENT
$handlerMap$??$_Insert_string@DU?$char_traits@D@std@@_K@std@@YAAEAV?$basic_ostream@DU?$char_traits@D@std@@@0@AEAV10@QEBD_K@Z DW 01102H
	DB	080H
	DD	imagerel ?catch$4@?0???$_Insert_string@DU?$char_traits@D@std@@_K@std@@YAAEAV?$basic_ostream@DU?$char_traits@D@std@@@0@AEAV10@QEBD_K@Z@4HA
	DW	0569H
xdata	ENDS
;	COMDAT xdata
xdata	SEGMENT
$tryMap$??$_Insert_string@DU?$char_traits@D@std@@_K@std@@YAAEAV?$basic_ostream@DU?$char_traits@D@std@@@0@AEAV10@QEBD_K@Z DD 06040402H
	DD	imagerel $handlerMap$??$_Insert_string@DU?$char_traits@D@std@@_K@std@@YAAEAV?$basic_ostream@DU?$char_traits@D@std@@@0@AEAV10@QEBD_K@Z
xdata	ENDS
;	COMDAT xdata
xdata	SEGMENT
$stateUnwindMap$??$_Insert_string@DU?$char_traits@D@std@@_K@std@@YAAEAV?$basic_ostream@DU?$char_traits@D@std@@@0@AEAV10@QEBD_K@Z DW 0a0cH
	DD	imagerel ??1_Sentry_base@?$basic_ostream@DU?$char_traits@D@std@@@std@@QEAA@XZ
	DW	03a40H
	DD	imagerel ??1sentry@?$basic_ostream@DU?$char_traits@D@std@@@std@@QEAA@XZ
	DD	07e383040H
	DD	imagerel __std_terminate
	DB	02eH
	DD	imagerel __std_terminate
xdata	ENDS
;	COMDAT xdata
xdata	SEGMENT
$cppxdata$??$_Insert_string@DU?$char_traits@D@std@@_K@std@@YAAEAV?$basic_ostream@DU?$char_traits@D@std@@@0@AEAV10@QEBD_K@Z DB 038H
	DD	imagerel $stateUnwindMap$??$_Insert_string@DU?$char_traits@D@std@@_K@std@@YAAEAV?$basic_ostream@DU?$char_traits@D@std@@@0@AEAV10@QEBD_K@Z
	DD	imagerel $tryMap$??$_Insert_string@DU?$char_traits@D@std@@_K@std@@YAAEAV?$basic_ostream@DU?$char_traits@D@std@@@0@AEAV10@QEBD_K@Z
	DD	imagerel $ip2state$??$_Insert_string@DU?$char_traits@D@std@@_K@std@@YAAEAV?$basic_ostream@DU?$char_traits@D@std@@@0@AEAV10@QEBD_K@Z
xdata	ENDS
;	COMDAT xdata
xdata	SEGMENT
$unwind$??$_Insert_string@DU?$char_traits@D@std@@_K@std@@YAAEAV?$basic_ostream@DU?$char_traits@D@std@@@0@AEAV10@QEBD_K@Z DQ 0000d341600081619r ; 1.83617e-308
	DQ	0c00ee010f0125216r		; -3.85941
	DD	0600b700cH
	DD	imagerel __CxxFrameHandler4
	DD	imagerel $cppxdata$??$_Insert_string@DU?$char_traits@D@std@@_K@std@@YAAEAV?$basic_ostream@DU?$char_traits@D@std@@@0@AEAV10@QEBD_K@Z
xdata	ENDS
;	COMDAT xdata
xdata	SEGMENT
$unwind$??$_Allocate_manually_vector_aligned@U_Default_allocate_traits@std@@@std@@YAPEAX_K@Z DQ 00000420400010401r ; 3.58617e-310
xdata	ENDS
;	COMDAT xdata
xdata	SEGMENT
$ip2state$??1sentry@?$basic_istream@DU?$char_traits@D@std@@@std@@QEAA@XZ DW 03602H
	DB	02H
xdata	ENDS
;	COMDAT xdata
xdata	SEGMENT
$stateUnwindMap$??1sentry@?$basic_istream@DU?$char_traits@D@std@@@std@@QEAA@XZ DW 0e02H
	DD	imagerel __std_terminate
xdata	ENDS
;	COMDAT xdata
xdata	SEGMENT
$cppxdata$??1sentry@?$basic_istream@DU?$char_traits@D@std@@@std@@QEAA@XZ DB 068H
	DD	imagerel $stateUnwindMap$??1sentry@?$basic_istream@DU?$char_traits@D@std@@@std@@QEAA@XZ
	DD	imagerel $ip2state$??1sentry@?$basic_istream@DU?$char_traits@D@std@@@std@@QEAA@XZ
xdata	ENDS
;	COMDAT xdata
xdata	SEGMENT
$unwind$??1sentry@?$basic_istream@DU?$char_traits@D@std@@@std@@QEAA@XZ DQ 00000420400010419r ; 3.58617e-310
	DD	imagerel __CxxFrameHandler4
	DD	imagerel $cppxdata$??1sentry@?$basic_istream@DU?$char_traits@D@std@@@std@@QEAA@XZ
xdata	ENDS
;	COMDAT xdata
xdata	SEGMENT
$ip2state$??0sentry@?$basic_istream@DU?$char_traits@D@std@@@std@@QEAA@AEAV12@_N@Z DD 012004804H
	DB	02H
xdata	ENDS
;	COMDAT xdata
xdata	SEGMENT
$stateUnwindMap$??0sentry@?$basic_istream@DU?$char_traits@D@std@@@std@@QEAA@AEAV12@_N@Z DW 0c02H
	DD	imagerel ??1_Sentry_base@?$basic_istream@DU?$char_traits@D@std@@@std@@QEAA@XZ
	DB	060H
xdata	ENDS
;	COMDAT xdata
xdata	SEGMENT
$cppxdata$??0sentry@?$basic_istream@DU?$char_traits@D@std@@@std@@QEAA@AEAV12@_N@Z DB 028H
	DD	imagerel $stateUnwindMap$??0sentry@?$basic_istream@DU?$char_traits@D@std@@@std@@QEAA@AEAV12@_N@Z
	DD	imagerel $ip2state$??0sentry@?$basic_istream@DU?$char_traits@D@std@@@std@@QEAA@AEAV12@_N@Z
xdata	ENDS
;	COMDAT xdata
xdata	SEGMENT
$unwind$??0sentry@?$basic_istream@DU?$char_traits@D@std@@@std@@QEAA@AEAV12@_N@Z DQ 03006320a00020a11r ; 2.39605e-77
	DD	imagerel __CxxFrameHandler4
	DD	imagerel $cppxdata$??0sentry@?$basic_istream@DU?$char_traits@D@std@@@std@@QEAA@AEAV12@_N@Z
xdata	ENDS
;	COMDAT xdata
xdata	SEGMENT
$ip2state$??1_Sentry_base@?$basic_istream@DU?$char_traits@D@std@@@std@@QEAA@XZ DW 03602H
	DB	00H
xdata	ENDS
;	COMDAT xdata
xdata	SEGMENT
$cppxdata$??1_Sentry_base@?$basic_istream@DU?$char_traits@D@std@@@std@@QEAA@XZ DB 060H
	DD	imagerel $ip2state$??1_Sentry_base@?$basic_istream@DU?$char_traits@D@std@@@std@@QEAA@XZ
xdata	ENDS
;	COMDAT xdata
xdata	SEGMENT
$unwind$??1_Sentry_base@?$basic_istream@DU?$char_traits@D@std@@@std@@QEAA@XZ DQ 00000420400010419r ; 3.58617e-310
	DD	imagerel __CxxFrameHandler4
	DD	imagerel $cppxdata$??1_Sentry_base@?$basic_istream@DU?$char_traits@D@std@@@std@@QEAA@XZ
xdata	ENDS
;	COMDAT xdata
xdata	SEGMENT
$unwind$??0_Sentry_base@?$basic_istream@DU?$char_traits@D@std@@@std@@QEAA@AEAV12@@Z DQ 03002320600020601r ; 1.96423e-77
; Function compile flags: /Ogtpy
;	COMDAT ?interpreter@@YAXH@Z
_TEXT	SEGMENT
$T536 = 32
$T534 = 32
$T532 = 32
$T530 = 32
$T528 = 32
$T527 = 32
$T525 = 32
$T523 = 32
$T521 = 32
$T520 = 32
$T518 = 32
$T508 = 32
$T489 = 32
$T473 = 32
$T454 = 32
$T435 = 32
$T416 = 32
$T391 = 32
$T372 = 32
$T356 = 32
$T337 = 32
$T318 = 32
$T299 = 32
$T289 = 32
$T279 = 32
$T256 = 32
$T237 = 32
$T1 = 64
$T493 = 64
$T458 = 64
$T439 = 64
$T420 = 64
$T401 = 64
$T376 = 64
$T341 = 64
$T322 = 64
$T303 = 64
$T260 = 64
$T241 = 72
$T222 = 72
$T203 = 72
$T184 = 72
$T165 = 72
$T142 = 72
$T123 = 72
$T104 = 72
$T85 = 72
$T66 = 72
$T538 = 72
war_lewa$541 = 88
$T218 = 88
$T199 = 88
$T180 = 88
$T161 = 88
$T138 = 88
$T119 = 88
$T100 = 88
$T81 = 88
$T62 = 88
$T29 = 88
$T7 = 88
str$ = 120
dzialanie$ = 152
war_prawa$542 = 184
$T539 = 216
war_wyraz$543 = 216
wynik_str$544 = 248
__$ArrayPad$ = 280
l$ = 368
?interpreter@@YAXH@Z PROC				; interpreter, COMDAT
; File C:\Users\borys\source\repos\calckonsol\interpreter.cpp
; Line 158
$LN2644:
  00000	48 8b c4	 mov	 rax, rsp
  00003	48 89 58 08	 mov	 QWORD PTR [rax+8], rbx
  00007	48 89 70 10	 mov	 QWORD PTR [rax+16], rsi
  0000b	48 89 78 18	 mov	 QWORD PTR [rax+24], rdi
  0000f	55		 push	 rbp
  00010	41 54		 push	 r12
  00012	41 55		 push	 r13
  00014	41 56		 push	 r14
  00016	41 57		 push	 r15
  00018	48 8d 68 98	 lea	 rbp, QWORD PTR [rax-104]
  0001c	48 81 ec 40 01
	00 00		 sub	 rsp, 320		; 00000140H
  00023	0f 29 70 c8	 movaps	 XMMWORD PTR [rax-56], xmm6
  00027	0f 29 78 b8	 movaps	 XMMWORD PTR [rax-72], xmm7
  0002b	48 8b 05 00 00
	00 00		 mov	 rax, QWORD PTR __security_cookie
  00032	48 33 c4	 xor	 rax, rsp
  00035	48 89 45 18	 mov	 QWORD PTR __$ArrayPad$[rbp-256], rax
  00039	45 33 e4	 xor	 r12d, r12d
  0003c	44 89 64 24 40	 mov	 DWORD PTR $T1[rsp], r12d
; Line 159
  00041	89 0d 00 00 00
	00		 mov	 DWORD PTR ?logi@@3HA, ecx ; logi
; File C:\Program Files (x86)\Microsoft Visual Studio\2019\Community\VC\Tools\MSVC\14.27.29110\include\xstring
; Line 4293
  00047	4c 89 65 a8	 mov	 QWORD PTR dzialanie$[rbp-240], r12
; Line 4294
  0004b	48 c7 45 b0 0f
	00 00 00	 mov	 QWORD PTR dzialanie$[rbp-232], 15
; Line 4296
  00053	44 88 65 98	 mov	 BYTE PTR dzialanie$[rbp-256], r12b
; Line 4293
  00057	4c 89 65 88	 mov	 QWORD PTR str$[rbp-240], r12
; Line 4294
  0005b	48 c7 45 90 0f
	00 00 00	 mov	 QWORD PTR str$[rbp-232], 15
; Line 4296
  00063	44 88 64 24 78	 mov	 BYTE PTR str$[rsp], r12b
; Line 4636
  00068	48 8d 55 98	 lea	 rdx, QWORD PTR dzialanie$[rbp-256]
  0006c	48 8b 0d 00 00
	00 00		 mov	 rcx, QWORD PTR __imp_?cin@std@@3V?$basic_istream@DU?$char_traits@D@std@@@1@A
  00073	e8 00 00 00 00	 call	 ??$?5DU?$char_traits@D@std@@V?$allocator@D@1@@std@@YAAEAV?$basic_istream@DU?$char_traits@D@std@@@0@$$QEAV10@AEAV?$basic_string@DU?$char_traits@D@std@@V?$allocator@D@2@@0@@Z ; std::operator>><char,std::char_traits<char>,std::allocator<char> >
; Line 2144
  00078	48 8d 55 98	 lea	 rdx, QWORD PTR dzialanie$[rbp-256]
; Line 2145
  0007c	48 83 7d b0 10	 cmp	 QWORD PTR dzialanie$[rbp-232], 16
  00081	48 0f 43 55 98	 cmovae	 rdx, QWORD PTR dzialanie$[rbp-256]
; Line 2750
  00086	4c 8b 45 a8	 mov	 r8, QWORD PTR dzialanie$[rbp-240]
  0008a	48 8d 4c 24 78	 lea	 rcx, QWORD PTR str$[rsp]
  0008f	e8 00 00 00 00	 call	 ?assign@?$basic_string@DU?$char_traits@D@std@@V?$allocator@D@2@@std@@QEAAAEAV12@QEBD_K@Z ; std::basic_string<char,std::char_traits<char>,std::allocator<char> >::assign
; Line 2124
  00094	4c 89 64 24 68	 mov	 QWORD PTR $T7[rsp+16], r12
; Line 2656
  00099	4c 8b 7d 88	 mov	 r15, QWORD PTR str$[rbp-240]
  0009d	4d 8b ef	 mov	 r13, r15
; Line 2144
  000a0	48 8d 7c 24 78	 lea	 rdi, QWORD PTR str$[rsp]
; Line 2145
  000a5	48 83 7d 90 10	 cmp	 QWORD PTR str$[rbp-232], 16
  000aa	48 0f 43 7c 24
	78		 cmovae	 rdi, QWORD PTR str$[rsp]
; Line 2659
  000b0	48 b8 ff ff ff
	ff ff ff ff 7f	 mov	 rax, 9223372036854775807 ; 7fffffffffffffffH
  000ba	49 83 ff 10	 cmp	 r15, 16
  000be	73 14		 jae	 SHORT $LN98@interprete
; Line 328
  000c0	0f 10 07	 movups	 xmm0, XMMWORD PTR [rdi]
  000c3	0f 11 44 24 58	 movups	 XMMWORD PTR $T7[rsp], xmm0
; Line 2662
  000c8	45 8d 74 24 0f	 lea	 r14d, QWORD PTR [r12+15]
; Line 2663
  000cd	48 8b 5c 24 58	 mov	 rbx, QWORD PTR $T7[rsp]
  000d2	eb 71		 jmp	 SHORT $LN97@interprete
$LN98@interprete:
; Line 2667
  000d4	4d 8b f5	 mov	 r14, r13
  000d7	49 83 ce 0f	 or	 r14, 15
  000db	4c 3b f0	 cmp	 r14, rax
  000de	4c 0f 47 f0	 cmova	 r14, rax
; Line 2668
  000e2	49 8d 4e 01	 lea	 rcx, QWORD PTR [r14+1]
; File C:\Program Files (x86)\Microsoft Visual Studio\2019\Community\VC\Tools\MSVC\14.27.29110\include\xmemory
; Line 200
  000e6	48 81 f9 00 10
	00 00		 cmp	 rcx, 4096		; 00001000H
  000ed	72 2c		 jb	 SHORT $LN112@interprete
; Line 115
  000ef	48 8d 41 27	 lea	 rax, QWORD PTR [rcx+39]
; Line 116
  000f3	48 3b c1	 cmp	 rax, rcx
  000f6	0f 86 60 1c 00
	00		 jbe	 $LN2612@interprete
; Line 77
  000fc	48 8b c8	 mov	 rcx, rax
  000ff	e8 00 00 00 00	 call	 ??2@YAPEAX_K@Z		; operator new
; Line 121
  00104	48 85 c0	 test	 rax, rax
  00107	0f 84 83 02 00
	00		 je	 $LN316@interprete
; Line 122
  0010d	48 8d 58 27	 lea	 rbx, QWORD PTR [rax+39]
  00111	48 83 e3 e0	 and	 rbx, -32		; ffffffffffffffe0H
; Line 123
  00115	48 89 43 f8	 mov	 QWORD PTR [rbx-8], rax
; Line 201
  00119	eb 12		 jmp	 SHORT $LN111@interprete
$LN112@interprete:
; Line 205
  0011b	48 85 c9	 test	 rcx, rcx
  0011e	74 0a		 je	 SHORT $LN113@interprete
; Line 77
  00120	e8 00 00 00 00	 call	 ??2@YAPEAX_K@Z		; operator new
  00125	48 8b d8	 mov	 rbx, rax
; Line 206
  00128	eb 03		 jmp	 SHORT $LN111@interprete
$LN113@interprete:
; Line 209
  0012a	49 8b dc	 mov	 rbx, r12
$LN111@interprete:
; File C:\Program Files (x86)\Microsoft Visual Studio\2019\Community\VC\Tools\MSVC\14.27.29110\include\xstring
; Line 2669
  0012d	48 89 5c 24 58	 mov	 QWORD PTR $T7[rsp], rbx
; Line 2670
  00132	4d 8d 47 01	 lea	 r8, QWORD PTR [r15+1]
; Line 328
  00136	48 8b d7	 mov	 rdx, rdi
  00139	48 8b cb	 mov	 rcx, rbx
  0013c	e8 00 00 00 00	 call	 memcpy
; Line 2672
  00141	4c 8b 7d 88	 mov	 r15, QWORD PTR str$[rbp-240]
$LN97@interprete:
; File C:\Users\borys\source\repos\calckonsol\interpreter.cpp
; Line 163
  00145	4c 89 6c 24 68	 mov	 QWORD PTR $T7[rsp+16], r13
  0014a	4c 89 74 24 70	 mov	 QWORD PTR $T7[rsp+24], r14
; File C:\Program Files (x86)\Microsoft Visual Studio\2019\Community\VC\Tools\MSVC\14.27.29110\include\xstring
; Line 3887
  0014f	49 8b f4	 mov	 rsi, r12
  00152	48 8d 05 00 00
	00 00		 lea	 rax, OFFSET FLAT:__ImageBase
  00159	0f 1f 80 00 00
	00 00		 npad	 7
$LL140@interprete:
; Line 2144
  00160	48 8d 7c 24 58	 lea	 rdi, QWORD PTR $T7[rsp]
; Line 2145
  00165	49 83 fe 10	 cmp	 r14, 16
  00169	48 0f 43 fb	 cmovae	 rdi, rbx
; Line 566
  0016d	4d 85 ed	 test	 r13, r13
  00170	74 28		 je	 SHORT $LN2603@interprete
; Line 356
  00172	0f be 94 06 00
	00 00 00	 movsx	 edx, BYTE PTR ?chars_niedozwolone@@3QBDB[rsi+rax]
  0017a	4d 8b c5	 mov	 r8, r13
  0017d	48 8b cf	 mov	 rcx, rdi
  00180	e8 00 00 00 00	 call	 memchr
; Line 568
  00185	48 85 c0	 test	 rax, rax
  00188	74 09		 je	 SHORT $LN2635@interprete
; Line 569
  0018a	48 2b c7	 sub	 rax, rdi
; File C:\Users\borys\source\repos\calckonsol\interpreter.cpp
; Line 69
  0018d	48 83 f8 ff	 cmp	 rax, -1
  00191	75 7c		 jne	 SHORT $LN2568@interprete
$LN2635@interprete:
; Line 67
  00193	48 8d 05 00 00
	00 00		 lea	 rax, OFFSET FLAT:__ImageBase
$LN2603@interprete:
  0019a	48 ff c6	 inc	 rsi
  0019d	48 83 fe 19	 cmp	 rsi, 25
  001a1	7c bd		 jl	 SHORT $LL140@interprete
; File C:\Program Files (x86)\Microsoft Visual Studio\2019\Community\VC\Tools\MSVC\14.27.29110\include\xstring
; Line 4301
  001a3	49 83 fe 10	 cmp	 r14, 16
  001a7	72 35		 jb	 SHORT $LN196@interprete
; Line 4305
  001a9	49 8d 56 01	 lea	 rdx, QWORD PTR [r14+1]
; File C:\Program Files (x86)\Microsoft Visual Studio\2019\Community\VC\Tools\MSVC\14.27.29110\include\xmemory
; Line 803
  001ad	48 8b c3	 mov	 rax, rbx
; Line 216
  001b0	48 81 fa 00 10
	00 00		 cmp	 rdx, 4096		; 00001000H
  001b7	72 19		 jb	 SHORT $LN206@interprete
; Line 134
  001b9	48 83 c2 27	 add	 rdx, 39			; 00000027H
; Line 137
  001bd	48 8b 5b f8	 mov	 rbx, QWORD PTR [rbx-8]
  001c1	48 2b c3	 sub	 rax, rbx
; Line 151
  001c4	48 83 c0 f8	 add	 rax, -8
  001c8	48 83 f8 1f	 cmp	 rax, 31
  001cc	0f 87 be 01 00
	00		 ja	 $LN316@interprete
$LN206@interprete:
; Line 221
  001d2	48 8b cb	 mov	 rcx, rbx
  001d5	e8 00 00 00 00	 call	 ??3@YAXPEAX_K@Z		; operator delete
  001da	4c 8b 7d 88	 mov	 r15, QWORD PTR str$[rbp-240]
$LN196@interprete:
; File C:\Program Files (x86)\Microsoft Visual Studio\2019\Community\VC\Tools\MSVC\14.27.29110\include\xstring
; Line 2656
  001de	49 8b f7	 mov	 rsi, r15
; Line 2144
  001e1	4c 8d 74 24 78	 lea	 r14, QWORD PTR str$[rsp]
; Line 2145
  001e6	48 83 7d 90 10	 cmp	 QWORD PTR str$[rbp-232], 16
  001eb	4c 0f 43 74 24
	78		 cmovae	 r14, QWORD PTR str$[rsp]
; Line 2659
  001f1	49 83 ff 10	 cmp	 r15, 16
  001f5	73 73		 jae	 SHORT $LN218@interprete
; Line 328
  001f7	41 0f 10 06	 movups	 xmm0, XMMWORD PTR [r14]
  001fb	0f 11 44 24 58	 movups	 XMMWORD PTR $T29[rsp], xmm0
; Line 2662
  00200	bf 0f 00 00 00	 mov	 edi, 15
; Line 2663
  00205	48 8b 5c 24 58	 mov	 rbx, QWORD PTR $T29[rsp]
  0020a	e9 d6 00 00 00	 jmp	 $LN217@interprete
$LN2568@interprete:
; Line 4301
  0020f	49 83 fe 10	 cmp	 r14, 16
  00213	72 31		 jb	 SHORT $LN8@interprete
; Line 4305
  00215	49 8d 56 01	 lea	 rdx, QWORD PTR [r14+1]
; File C:\Program Files (x86)\Microsoft Visual Studio\2019\Community\VC\Tools\MSVC\14.27.29110\include\xmemory
; Line 803
  00219	48 8b c3	 mov	 rax, rbx
; Line 216
  0021c	48 81 fa 00 10
	00 00		 cmp	 rdx, 4096		; 00001000H
  00223	72 19		 jb	 SHORT $LN178@interprete
; Line 134
  00225	48 83 c2 27	 add	 rdx, 39			; 00000027H
; Line 137
  00229	48 8b 5b f8	 mov	 rbx, QWORD PTR [rbx-8]
  0022d	48 2b c3	 sub	 rax, rbx
; Line 151
  00230	48 83 c0 f8	 add	 rax, -8
  00234	48 83 f8 1f	 cmp	 rax, 31
  00238	0f 87 52 01 00
	00		 ja	 $LN316@interprete
$LN178@interprete:
; Line 221
  0023e	48 8b cb	 mov	 rcx, rbx
  00241	e8 00 00 00 00	 call	 ??3@YAXPEAX_K@Z		; operator delete
$LN8@interprete:
; File C:\Users\borys\source\repos\calckonsol\interpreter.cpp
; Line 272
  00246	48 8d 15 00 00
	00 00		 lea	 rdx, OFFSET FLAT:??_C@_0DG@EFCNPALD@Nie?5rozumiem?5liter?5?3?$CJ?5?$FLoprocz?5l@
  0024d	48 8d 4d d8	 lea	 rcx, QWORD PTR $T539[rbp-256]
  00251	e8 00 00 00 00	 call	 ??0?$basic_string@DU?$char_traits@D@std@@V?$allocator@D@2@@std@@QEAA@QEBD@Z ; std::basic_string<char,std::char_traits<char>,std::allocator<char> >::basic_string<char,std::char_traits<char>,std::allocator<char> >
  00256	45 33 c0	 xor	 r8d, r8d
  00259	41 8d 50 01	 lea	 edx, QWORD PTR [r8+1]
  0025d	48 8b c8	 mov	 rcx, rax
  00260	e8 00 00 00 00	 call	 ?log@@YAXV?$basic_string@DU?$char_traits@D@std@@V?$allocator@D@2@@std@@HH@Z ; log
  00265	e9 a1 1a 00 00	 jmp	 $LN9@interprete
$LN218@interprete:
; File C:\Program Files (x86)\Microsoft Visual Studio\2019\Community\VC\Tools\MSVC\14.27.29110\include\xstring
; Line 2667
  0026a	48 8b fe	 mov	 rdi, rsi
  0026d	48 83 cf 0f	 or	 rdi, 15
  00271	48 b8 ff ff ff
	ff ff ff ff 7f	 mov	 rax, 9223372036854775807 ; 7fffffffffffffffH
  0027b	48 3b f8	 cmp	 rdi, rax
  0027e	48 0f 47 f8	 cmova	 rdi, rax
; Line 2668
  00282	48 8d 4f 01	 lea	 rcx, QWORD PTR [rdi+1]
; File C:\Program Files (x86)\Microsoft Visual Studio\2019\Community\VC\Tools\MSVC\14.27.29110\include\xmemory
; Line 200
  00286	48 81 f9 00 10
	00 00		 cmp	 rcx, 4096		; 00001000H
  0028d	72 2c		 jb	 SHORT $LN232@interprete
; Line 115
  0028f	48 8d 41 27	 lea	 rax, QWORD PTR [rcx+39]
; Line 116
  00293	48 3b c1	 cmp	 rax, rcx
  00296	0f 86 c0 1a 00
	00		 jbe	 $LN2612@interprete
; Line 77
  0029c	48 8b c8	 mov	 rcx, rax
  0029f	e8 00 00 00 00	 call	 ??2@YAPEAX_K@Z		; operator new
; Line 121
  002a4	48 85 c0	 test	 rax, rax
  002a7	0f 84 e3 00 00
	00		 je	 $LN316@interprete
; Line 122
  002ad	48 8d 58 27	 lea	 rbx, QWORD PTR [rax+39]
  002b1	48 83 e3 e0	 and	 rbx, -32		; ffffffffffffffe0H
; Line 123
  002b5	48 89 43 f8	 mov	 QWORD PTR [rbx-8], rax
; Line 201
  002b9	eb 12		 jmp	 SHORT $LN231@interprete
$LN232@interprete:
; Line 205
  002bb	48 85 c9	 test	 rcx, rcx
  002be	74 0a		 je	 SHORT $LN233@interprete
; Line 77
  002c0	e8 00 00 00 00	 call	 ??2@YAPEAX_K@Z		; operator new
  002c5	48 8b d8	 mov	 rbx, rax
; Line 206
  002c8	eb 03		 jmp	 SHORT $LN231@interprete
$LN233@interprete:
; Line 209
  002ca	49 8b dc	 mov	 rbx, r12
$LN231@interprete:
; File C:\Program Files (x86)\Microsoft Visual Studio\2019\Community\VC\Tools\MSVC\14.27.29110\include\xstring
; Line 2669
  002cd	48 89 5c 24 58	 mov	 QWORD PTR $T29[rsp], rbx
; Line 2670
  002d2	4d 8d 47 01	 lea	 r8, QWORD PTR [r15+1]
; Line 328
  002d6	49 8b d6	 mov	 rdx, r14
  002d9	48 8b cb	 mov	 rcx, rbx
  002dc	e8 00 00 00 00	 call	 memcpy
; Line 2672
  002e1	4c 8b 7d 88	 mov	 r15, QWORD PTR str$[rbp-240]
$LN217@interprete:
; File C:\Users\borys\source\repos\calckonsol\interpreter.cpp
; Line 165
  002e5	48 89 74 24 68	 mov	 QWORD PTR $T29[rsp+16], rsi
  002ea	48 89 7c 24 70	 mov	 QWORD PTR $T29[rsp+24], rdi
; File C:\Program Files (x86)\Microsoft Visual Studio\2019\Community\VC\Tools\MSVC\14.27.29110\include\xstring
; Line 2137
  002ef	45 33 ed	 xor	 r13d, r13d
  002f2	41 8b d5	 mov	 edx, r13d
  002f5	66 66 66 0f 1f
	84 00 00 00 00
	00		 npad	 11
$LL259@interprete:
; Line 2135
  00300	48 8d 4c 24 58	 lea	 rcx, QWORD PTR $T29[rsp]
; Line 2136
  00305	48 83 ff 10	 cmp	 rdi, 16
  00309	48 0f 43 cb	 cmovae	 rcx, rbx
; File C:\Users\borys\source\repos\calckonsol\interpreter.cpp
; Line 81
  0030d	48 8d 05 00 00
	00 00		 lea	 rax, OFFSET FLAT:__ImageBase
  00314	0f b6 84 02 00
	00 00 00	 movzx	 eax, BYTE PTR ?chars@@3QBDB[rdx+rax]
  0031c	38 01		 cmp	 BYTE PTR [rcx], al
  0031e	74 45		 je	 SHORT $LN2569@interprete
; Line 79
  00320	48 ff c2	 inc	 rdx
  00323	48 83 fa 06	 cmp	 rdx, 6
  00327	7e d7		 jle	 SHORT $LL259@interprete
; File C:\Program Files (x86)\Microsoft Visual Studio\2019\Community\VC\Tools\MSVC\14.27.29110\include\xstring
; Line 4301
  00329	48 83 ff 10	 cmp	 rdi, 16
  0032d	0f 82 d5 00 00
	00		 jb	 $LN357@interprete
; Line 4305
  00333	48 8d 57 01	 lea	 rdx, QWORD PTR [rdi+1]
; File C:\Program Files (x86)\Microsoft Visual Studio\2019\Community\VC\Tools\MSVC\14.27.29110\include\xmemory
; Line 803
  00337	48 8b c3	 mov	 rax, rbx
; Line 216
  0033a	48 81 fa 00 10
	00 00		 cmp	 rdx, 4096		; 00001000H
  00341	72 15		 jb	 SHORT $LN319@interprete
; Line 134
  00343	48 83 c2 27	 add	 rdx, 39			; 00000027H
; Line 137
  00347	48 8b 5b f8	 mov	 rbx, QWORD PTR [rbx-8]
  0034b	48 2b c3	 sub	 rax, rbx
; Line 151
  0034e	48 83 c0 f8	 add	 rax, -8
  00352	48 83 f8 1f	 cmp	 rax, 31
  00356	77 38		 ja	 SHORT $LN316@interprete
$LN319@interprete:
; Line 221
  00358	48 8b cb	 mov	 rcx, rbx
  0035b	e8 00 00 00 00	 call	 ??3@YAXPEAX_K@Z		; operator delete
; File C:\Users\borys\source\repos\calckonsol\interpreter.cpp
; Line 165
  00360	e9 9f 00 00 00	 jmp	 $LN2637@interprete
$LN2569@interprete:
; File C:\Program Files (x86)\Microsoft Visual Studio\2019\Community\VC\Tools\MSVC\14.27.29110\include\xstring
; Line 4301
  00365	48 83 ff 10	 cmp	 rdi, 16
  00369	72 38		 jb	 SHORT $LN2608@interprete
; Line 4305
  0036b	48 8d 57 01	 lea	 rdx, QWORD PTR [rdi+1]
; File C:\Program Files (x86)\Microsoft Visual Studio\2019\Community\VC\Tools\MSVC\14.27.29110\include\xmemory
; Line 803
  0036f	48 8b c3	 mov	 rax, rbx
; Line 216
  00372	48 81 fa 00 10
	00 00		 cmp	 rdx, 4096		; 00001000H
  00379	72 1c		 jb	 SHORT $LN291@interprete
; Line 134
  0037b	48 83 c2 27	 add	 rdx, 39			; 00000027H
; Line 137
  0037f	48 8b 5b f8	 mov	 rbx, QWORD PTR [rbx-8]
  00383	48 2b c3	 sub	 rax, rbx
; Line 151
  00386	48 83 c0 f8	 add	 rax, -8
  0038a	48 83 f8 1f	 cmp	 rax, 31
  0038e	76 07		 jbe	 SHORT $LN291@interprete
$LN316@interprete:
  00390	ff 15 00 00 00
	00		 call	 QWORD PTR __imp__invalid_parameter_noinfo_noreturn
  00396	cc		 int	 3
$LN291@interprete:
; Line 221
  00397	48 8b cb	 mov	 rcx, rbx
  0039a	e8 00 00 00 00	 call	 ??3@YAXPEAX_K@Z		; operator delete
  0039f	4c 8b 7d 88	 mov	 r15, QWORD PTR str$[rbp-240]
$LN2608@interprete:
; File C:\Program Files (x86)\Microsoft Visual Studio\2019\Community\VC\Tools\MSVC\14.27.29110\include\xstring
; Line 2174
  003a3	b8 01 00 00 00	 mov	 eax, 1
  003a8	4c 3b f8	 cmp	 r15, rax
  003ab	49 0f 42 c7	 cmovb	 rax, r15
; Line 2135
  003af	48 8d 4c 24 78	 lea	 rcx, QWORD PTR str$[rsp]
; Line 2136
  003b4	48 83 7d 90 10	 cmp	 QWORD PTR str$[rbp-232], 16
  003b9	48 0f 43 4c 24
	78		 cmovae	 rcx, QWORD PTR str$[rsp]
; Line 3221
  003bf	4c 2b f8	 sub	 r15, rax
; Line 3222
  003c2	4c 89 7d 88	 mov	 QWORD PTR str$[rbp-240], r15
; Line 3223
  003c6	4d 8d 47 01	 lea	 r8, QWORD PTR [r15+1]
  003ca	48 8d 14 01	 lea	 rdx, QWORD PTR [rcx+rax]
; Line 363
  003ce	e8 00 00 00 00	 call	 memmove
; Line 2174
  003d3	b8 01 00 00 00	 mov	 eax, 1
  003d8	4c 8b 45 a8	 mov	 r8, QWORD PTR dzialanie$[rbp-240]
  003dc	4c 3b c0	 cmp	 r8, rax
  003df	49 0f 42 c0	 cmovb	 rax, r8
; Line 2135
  003e3	48 8d 4d 98	 lea	 rcx, QWORD PTR dzialanie$[rbp-256]
; Line 2136
  003e7	48 83 7d b0 10	 cmp	 QWORD PTR dzialanie$[rbp-232], 16
  003ec	48 0f 43 4d 98	 cmovae	 rcx, QWORD PTR dzialanie$[rbp-256]
; Line 3221
  003f1	4c 2b c0	 sub	 r8, rax
; Line 3222
  003f4	4c 89 45 a8	 mov	 QWORD PTR dzialanie$[rbp-240], r8
; Line 3223
  003f8	49 ff c0	 inc	 r8
  003fb	48 8d 14 01	 lea	 rdx, QWORD PTR [rcx+rax]
; Line 363
  003ff	e8 00 00 00 00	 call	 memmove
$LN2637@interprete:
; File C:\Users\borys\source\repos\calckonsol\interpreter.cpp
; Line 171
  00404	4c 8b 7d 88	 mov	 r15, QWORD PTR str$[rbp-240]
$LN357@interprete:
  00408	45 0f b7 e5	 movzx	 r12d, r13w
; Line 172
  0040c	44 8b 75 88	 mov	 r14d, DWORD PTR str$[rbp-240]
; File C:\Program Files (x86)\Microsoft Visual Studio\2019\Community\VC\Tools\MSVC\14.27.29110\include\xstring
; Line 2144
  00410	48 8d 5c 24 78	 lea	 rbx, QWORD PTR str$[rsp]
; Line 2145
  00415	48 83 7d 90 10	 cmp	 QWORD PTR str$[rbp-232], 16
  0041a	48 0f 43 5c 24
	78		 cmovae	 rbx, QWORD PTR str$[rsp]
; Line 566
  00420	48 c7 c7 ff ff
	ff ff		 mov	 rdi, -1
  00427	4d 85 ff	 test	 r15, r15
  0042a	74 1b		 je	 SHORT $LN367@interprete
; Line 356
  0042c	4d 8b c7	 mov	 r8, r15
  0042f	8d 57 6d	 lea	 edx, QWORD PTR [rdi+109]
  00432	48 8b cb	 mov	 rcx, rbx
  00435	e8 00 00 00 00	 call	 memchr
  0043a	48 8b f0	 mov	 rsi, rax
; Line 568
  0043d	48 85 c0	 test	 rax, rax
  00440	74 05		 je	 SHORT $LN367@interprete
; Line 569
  00442	48 2b f3	 sub	 rsi, rbx
  00445	eb 03		 jmp	 SHORT $LN365@interprete
$LN367@interprete:
; Line 573
  00447	48 8b f7	 mov	 rsi, rdi
$LN365@interprete:
; Line 4293
  0044a	4c 89 6c 24 68	 mov	 QWORD PTR $T62[rsp+16], r13
; Line 4294
  0044f	48 c7 44 24 70
	0f 00 00 00	 mov	 QWORD PTR $T62[rsp+24], 15
; Line 4296
  00458	44 88 64 24 58	 mov	 BYTE PTR $T62[rsp], r12b
; Line 2984
  0045d	41 b8 1b 00 00
	00		 mov	 r8d, 27
  00463	48 8d 15 00 00
	00 00		 lea	 rdx, OFFSET FLAT:??_C@_0BM@GIFJCLFB@Inicjalizacja?5while?5loop?4?$CB?5@
  0046a	48 8d 4c 24 58	 lea	 rcx, QWORD PTR $T62[rsp]
  0046f	e8 00 00 00 00	 call	 ?assign@?$basic_string@DU?$char_traits@D@std@@V?$allocator@D@2@@std@@QEAAAEAV12@QEBD_K@Z ; std::basic_string<char,std::char_traits<char>,std::allocator<char> >::assign
; File C:\Users\borys\source\repos\calckonsol\interpreter.cpp
; Line 175
  00474	48 8d 44 24 58	 lea	 rax, QWORD PTR $T62[rsp]
  00479	48 89 44 24 48	 mov	 QWORD PTR $T66[rsp], rax
; Line 24
  0047e	83 3d 00 00 00
	00 01		 cmp	 DWORD PTR ?logi@@3HA, 1	; logi
  00485	75 33		 jne	 SHORT $LN386@interprete
; File C:\Program Files (x86)\Microsoft Visual Studio\2019\Community\VC\Tools\MSVC\14.27.29110\include\xstring
; Line 2144
  00487	48 8d 54 24 58	 lea	 rdx, QWORD PTR $T62[rsp]
; Line 2145
  0048c	48 83 7c 24 70
	10		 cmp	 QWORD PTR $T62[rsp+24], 16
  00492	48 0f 43 54 24
	58		 cmovae	 rdx, QWORD PTR $T62[rsp]
; Line 4642
  00498	4c 8b 44 24 68	 mov	 r8, QWORD PTR $T62[rsp+16]
  0049d	48 8b 0d 00 00
	00 00		 mov	 rcx, QWORD PTR __imp_?cout@std@@3V?$basic_ostream@DU?$char_traits@D@std@@@1@A
  004a4	e8 00 00 00 00	 call	 ??$_Insert_string@DU?$char_traits@D@std@@_K@std@@YAAEAV?$basic_ostream@DU?$char_traits@D@std@@@0@AEAV10@QEBD_K@Z ; std::_Insert_string<char,std::char_traits<char>,unsigned __int64>
  004a9	48 8b c8	 mov	 rcx, rax
; File C:\Users\borys\source\repos\calckonsol\interpreter.cpp
; Line 26
  004ac	48 8d 15 00 00
	00 00		 lea	 rdx, OFFSET FLAT:??$endl@DU?$char_traits@D@std@@@std@@YAAEAV?$basic_ostream@DU?$char_traits@D@std@@@0@AEAV10@@Z ; std::endl<char,std::char_traits<char> >
  004b3	ff 15 00 00 00
	00		 call	 QWORD PTR __imp_??6?$basic_ostream@DU?$char_traits@D@std@@@std@@QEAAAEAV01@P6AAEAV01@AEAV01@@Z@Z
  004b9	90		 npad	 1
$LN386@interprete:
; File C:\Program Files (x86)\Microsoft Visual Studio\2019\Community\VC\Tools\MSVC\14.27.29110\include\xstring
; Line 4301
  004ba	48 8b 54 24 70	 mov	 rdx, QWORD PTR $T62[rsp+24]
  004bf	48 83 fa 10	 cmp	 rdx, 16
  004c3	72 35		 jb	 SHORT $LN441@interprete
; Line 4305
  004c5	48 ff c2	 inc	 rdx
; File C:\Program Files (x86)\Microsoft Visual Studio\2019\Community\VC\Tools\MSVC\14.27.29110\include\xmemory
; Line 803
  004c8	48 8b 4c 24 58	 mov	 rcx, QWORD PTR $T62[rsp]
  004cd	48 8b c1	 mov	 rax, rcx
; Line 216
  004d0	48 81 fa 00 10
	00 00		 cmp	 rdx, 4096		; 00001000H
  004d7	72 1c		 jb	 SHORT $LN451@interprete
; Line 134
  004d9	48 83 c2 27	 add	 rdx, 39			; 00000027H
; Line 137
  004dd	48 8b 49 f8	 mov	 rcx, QWORD PTR [rcx-8]
  004e1	48 2b c1	 sub	 rax, rcx
; Line 151
  004e4	48 83 c0 f8	 add	 rax, -8
  004e8	48 83 f8 1f	 cmp	 rax, 31
  004ec	76 07		 jbe	 SHORT $LN451@interprete
  004ee	ff 15 00 00 00
	00		 call	 QWORD PTR __imp__invalid_parameter_noinfo_noreturn
  004f4	cc		 int	 3
$LN451@interprete:
; Line 221
  004f5	e8 00 00 00 00	 call	 ??3@YAXPEAX_K@Z		; operator delete
$LN441@interprete:
; File C:\Program Files (x86)\Microsoft Visual Studio\2019\Community\VC\Tools\MSVC\14.27.29110\include\xstring
; Line 4293
  004fa	4c 89 6c 24 68	 mov	 QWORD PTR $T81[rsp+16], r13
; Line 4294
  004ff	48 c7 44 24 70
	0f 00 00 00	 mov	 QWORD PTR $T81[rsp+24], 15
; Line 4296
  00508	c6 44 24 58 00	 mov	 BYTE PTR $T81[rsp], 0
; Line 2984
  0050d	41 b8 1a 00 00
	00		 mov	 r8d, 26
  00513	48 8d 15 00 00
	00 00		 lea	 rdx, OFFSET FLAT:??_C@_0BL@KKABNFML@Poczatkowa?5pozycja?5znaku?3?5@
  0051a	48 8d 4c 24 58	 lea	 rcx, QWORD PTR $T81[rsp]
  0051f	e8 00 00 00 00	 call	 ?assign@?$basic_string@DU?$char_traits@D@std@@V?$allocator@D@2@@std@@QEAAAEAV12@QEBD_K@Z ; std::basic_string<char,std::char_traits<char>,std::allocator<char> >::assign
; File C:\Users\borys\source\repos\calckonsol\interpreter.cpp
; Line 176
  00524	48 8d 44 24 58	 lea	 rax, QWORD PTR $T81[rsp]
  00529	48 89 44 24 48	 mov	 QWORD PTR $T85[rsp], rax
; Line 20
  0052e	83 3d 00 00 00
	00 01		 cmp	 DWORD PTR ?logi@@3HA, 1	; logi
  00535	75 23		 jne	 SHORT $LN470@interprete
; File C:\Program Files (x86)\Microsoft Visual Studio\2019\Community\VC\Tools\MSVC\14.27.29110\include\xstring
; Line 2144
  00537	48 8d 54 24 58	 lea	 rdx, QWORD PTR $T81[rsp]
; Line 2145
  0053c	48 83 7c 24 70
	10		 cmp	 QWORD PTR $T81[rsp+24], 16
  00542	48 0f 43 54 24
	58		 cmovae	 rdx, QWORD PTR $T81[rsp]
; Line 4642
  00548	4c 8b 44 24 68	 mov	 r8, QWORD PTR $T81[rsp+16]
  0054d	48 8b 0d 00 00
	00 00		 mov	 rcx, QWORD PTR __imp_?cout@std@@3V?$basic_ostream@DU?$char_traits@D@std@@@1@A
  00554	e8 00 00 00 00	 call	 ??$_Insert_string@DU?$char_traits@D@std@@_K@std@@YAAEAV?$basic_ostream@DU?$char_traits@D@std@@@0@AEAV10@QEBD_K@Z ; std::_Insert_string<char,std::char_traits<char>,unsigned __int64>
  00559	90		 npad	 1
$LN470@interprete:
; Line 4301
  0055a	48 8b 54 24 70	 mov	 rdx, QWORD PTR $T81[rsp+24]
  0055f	48 83 fa 10	 cmp	 rdx, 16
  00563	72 35		 jb	 SHORT $LN527@interprete
; Line 4305
  00565	48 ff c2	 inc	 rdx
; File C:\Program Files (x86)\Microsoft Visual Studio\2019\Community\VC\Tools\MSVC\14.27.29110\include\xmemory
; Line 803
  00568	48 8b 4c 24 58	 mov	 rcx, QWORD PTR $T81[rsp]
  0056d	48 8b c1	 mov	 rax, rcx
; Line 216
  00570	48 81 fa 00 10
	00 00		 cmp	 rdx, 4096		; 00001000H
  00577	72 1c		 jb	 SHORT $LN537@interprete
; Line 134
  00579	48 83 c2 27	 add	 rdx, 39			; 00000027H
; Line 137
  0057d	48 8b 49 f8	 mov	 rcx, QWORD PTR [rcx-8]
  00581	48 2b c1	 sub	 rax, rcx
; Line 151
  00584	48 83 c0 f8	 add	 rax, -8
  00588	48 83 f8 1f	 cmp	 rax, 31
  0058c	76 07		 jbe	 SHORT $LN537@interprete
  0058e	ff 15 00 00 00
	00		 call	 QWORD PTR __imp__invalid_parameter_noinfo_noreturn
  00594	cc		 int	 3
$LN537@interprete:
; Line 221
  00595	e8 00 00 00 00	 call	 ??3@YAXPEAX_K@Z		; operator delete
$LN527@interprete:
  0059a	66 0f 6e f6	 movd	 xmm6, esi
; File C:\Users\borys\source\repos\calckonsol\interpreter.cpp
; Line 177
  0059e	f3 0f e6 f6	 cvtdq2pd xmm6, xmm6
; Line 41
  005a2	83 3d 00 00 00
	00 01		 cmp	 DWORD PTR ?logi@@3HA, 1	; logi
  005a9	75 3e		 jne	 SHORT $LN547@interprete
; Line 49
  005ab	48 8d 15 00 00
	00 00		 lea	 rdx, OFFSET FLAT:??_C@_01CLKCMJKC@?5@
  005b2	48 8b 0d 00 00
	00 00		 mov	 rcx, QWORD PTR __imp_?cout@std@@3V?$basic_ostream@DU?$char_traits@D@std@@@1@A
  005b9	e8 00 00 00 00	 call	 ??$?6U?$char_traits@D@std@@@std@@YAAEAV?$basic_ostream@DU?$char_traits@D@std@@@0@AEAV10@PEBD@Z ; std::operator<<<std::char_traits<char> >
  005be	48 8b c8	 mov	 rcx, rax
  005c1	0f 28 ce	 movaps	 xmm1, xmm6
  005c4	ff 15 00 00 00
	00		 call	 QWORD PTR __imp_??6?$basic_ostream@DU?$char_traits@D@std@@@std@@QEAAAEAV01@N@Z
  005ca	48 8b c8	 mov	 rcx, rax
  005cd	48 8d 15 00 00
	00 00		 lea	 rdx, OFFSET FLAT:??_C@_01CLKCMJKC@?5@
  005d4	e8 00 00 00 00	 call	 ??$?6U?$char_traits@D@std@@@std@@YAAEAV?$basic_ostream@DU?$char_traits@D@std@@@0@AEAV10@PEBD@Z ; std::operator<<<std::char_traits<char> >
  005d9	48 8b c8	 mov	 rcx, rax
  005dc	48 8d 15 00 00
	00 00		 lea	 rdx, OFFSET FLAT:??$endl@DU?$char_traits@D@std@@@std@@YAAEAV?$basic_ostream@DU?$char_traits@D@std@@@0@AEAV10@@Z ; std::endl<char,std::char_traits<char> >
  005e3	ff 15 00 00 00
	00		 call	 QWORD PTR __imp_??6?$basic_ostream@DU?$char_traits@D@std@@@std@@QEAAAEAV01@P6AAEAV01@AEAV01@@Z@Z
$LN547@interprete:
; File C:\Program Files (x86)\Microsoft Visual Studio\2019\Community\VC\Tools\MSVC\14.27.29110\include\xstring
; Line 4293
  005e9	4c 89 6c 24 68	 mov	 QWORD PTR $T100[rsp+16], r13
; Line 4294
  005ee	48 c7 44 24 70
	0f 00 00 00	 mov	 QWORD PTR $T100[rsp+24], 15
; Line 4296
  005f7	c6 44 24 58 00	 mov	 BYTE PTR $T100[rsp], 0
; Line 2984
  005fc	41 b8 0f 00 00
	00		 mov	 r8d, 15
  00602	48 8d 15 00 00
	00 00		 lea	 rdx, OFFSET FLAT:??_C@_0BA@CHAJAJMM@Rozmiar?5ciagu?3?5@
  00609	48 8d 4c 24 58	 lea	 rcx, QWORD PTR $T100[rsp]
  0060e	e8 00 00 00 00	 call	 ?assign@?$basic_string@DU?$char_traits@D@std@@V?$allocator@D@2@@std@@QEAAAEAV12@QEBD_K@Z ; std::basic_string<char,std::char_traits<char>,std::allocator<char> >::assign
; File C:\Users\borys\source\repos\calckonsol\interpreter.cpp
; Line 178
  00613	48 8d 44 24 58	 lea	 rax, QWORD PTR $T100[rsp]
  00618	48 89 44 24 48	 mov	 QWORD PTR $T104[rsp], rax
; Line 20
  0061d	83 3d 00 00 00
	00 01		 cmp	 DWORD PTR ?logi@@3HA, 1	; logi
  00624	75 23		 jne	 SHORT $LN562@interprete
; File C:\Program Files (x86)\Microsoft Visual Studio\2019\Community\VC\Tools\MSVC\14.27.29110\include\xstring
; Line 2144
  00626	48 8d 54 24 58	 lea	 rdx, QWORD PTR $T100[rsp]
; Line 2145
  0062b	48 83 7c 24 70
	10		 cmp	 QWORD PTR $T100[rsp+24], 16
  00631	48 0f 43 54 24
	58		 cmovae	 rdx, QWORD PTR $T100[rsp]
; Line 4642
  00637	4c 8b 44 24 68	 mov	 r8, QWORD PTR $T100[rsp+16]
  0063c	48 8b 0d 00 00
	00 00		 mov	 rcx, QWORD PTR __imp_?cout@std@@3V?$basic_ostream@DU?$char_traits@D@std@@@1@A
  00643	e8 00 00 00 00	 call	 ??$_Insert_string@DU?$char_traits@D@std@@_K@std@@YAAEAV?$basic_ostream@DU?$char_traits@D@std@@@0@AEAV10@QEBD_K@Z ; std::_Insert_string<char,std::char_traits<char>,unsigned __int64>
  00648	90		 npad	 1
$LN562@interprete:
; Line 4301
  00649	48 8b 54 24 70	 mov	 rdx, QWORD PTR $T100[rsp+24]
  0064e	48 83 fa 10	 cmp	 rdx, 16
  00652	72 35		 jb	 SHORT $LN619@interprete
; Line 4305
  00654	48 ff c2	 inc	 rdx
; File C:\Program Files (x86)\Microsoft Visual Studio\2019\Community\VC\Tools\MSVC\14.27.29110\include\xmemory
; Line 803
  00657	48 8b 4c 24 58	 mov	 rcx, QWORD PTR $T100[rsp]
  0065c	48 8b c1	 mov	 rax, rcx
; Line 216
  0065f	48 81 fa 00 10
	00 00		 cmp	 rdx, 4096		; 00001000H
  00666	72 1c		 jb	 SHORT $LN629@interprete
; Line 134
  00668	48 83 c2 27	 add	 rdx, 39			; 00000027H
; Line 137
  0066c	48 8b 49 f8	 mov	 rcx, QWORD PTR [rcx-8]
  00670	48 2b c1	 sub	 rax, rcx
; Line 151
  00673	48 83 c0 f8	 add	 rax, -8
  00677	48 83 f8 1f	 cmp	 rax, 31
  0067b	76 07		 jbe	 SHORT $LN629@interprete
  0067d	ff 15 00 00 00
	00		 call	 QWORD PTR __imp__invalid_parameter_noinfo_noreturn
  00683	cc		 int	 3
$LN629@interprete:
; Line 221
  00684	e8 00 00 00 00	 call	 ??3@YAXPEAX_K@Z		; operator delete
$LN619@interprete:
  00689	66 41 0f 6e f6	 movd	 xmm6, r14d
; File C:\Users\borys\source\repos\calckonsol\interpreter.cpp
; Line 179
  0068e	f3 0f e6 f6	 cvtdq2pd xmm6, xmm6
; Line 41
  00692	83 3d 00 00 00
	00 01		 cmp	 DWORD PTR ?logi@@3HA, 1	; logi
  00699	75 3e		 jne	 SHORT $LN2626@interprete
; Line 49
  0069b	48 8d 15 00 00
	00 00		 lea	 rdx, OFFSET FLAT:??_C@_01CLKCMJKC@?5@
  006a2	48 8b 0d 00 00
	00 00		 mov	 rcx, QWORD PTR __imp_?cout@std@@3V?$basic_ostream@DU?$char_traits@D@std@@@1@A
  006a9	e8 00 00 00 00	 call	 ??$?6U?$char_traits@D@std@@@std@@YAAEAV?$basic_ostream@DU?$char_traits@D@std@@@0@AEAV10@PEBD@Z ; std::operator<<<std::char_traits<char> >
  006ae	48 8b c8	 mov	 rcx, rax
  006b1	0f 28 ce	 movaps	 xmm1, xmm6
  006b4	ff 15 00 00 00
	00		 call	 QWORD PTR __imp_??6?$basic_ostream@DU?$char_traits@D@std@@@std@@QEAAAEAV01@N@Z
  006ba	48 8b c8	 mov	 rcx, rax
  006bd	48 8d 15 00 00
	00 00		 lea	 rdx, OFFSET FLAT:??_C@_01CLKCMJKC@?5@
  006c4	e8 00 00 00 00	 call	 ??$?6U?$char_traits@D@std@@@std@@YAAEAV?$basic_ostream@DU?$char_traits@D@std@@@0@AEAV10@PEBD@Z ; std::operator<<<std::char_traits<char> >
  006c9	48 8b c8	 mov	 rcx, rax
  006cc	48 8d 15 00 00
	00 00		 lea	 rdx, OFFSET FLAT:??$endl@DU?$char_traits@D@std@@@std@@YAAEAV?$basic_ostream@DU?$char_traits@D@std@@@0@AEAV10@@Z ; std::endl<char,std::char_traits<char> >
  006d3	ff 15 00 00 00
	00		 call	 QWORD PTR __imp_??6?$basic_ostream@DU?$char_traits@D@std@@@std@@QEAAAEAV01@P6AAEAV01@AEAV01@@Z@Z
$LN2626@interprete:
  006d9	44 8b 7c 24 40	 mov	 r15d, DWORD PTR $T1[rsp]
  006de	66 90		 npad	 2
$LL2@interprete:
; Line 181
  006e0	66 41 83 fc 06	 cmp	 r12w, 6
  006e5	7c 09		 jl	 SHORT $LN11@interprete
  006e7	83 fe ff	 cmp	 esi, -1
  006ea	0f 85 ae 15 00
	00		 jne	 $LN1177@interprete
$LN11@interprete:
; File C:\Program Files (x86)\Microsoft Visual Studio\2019\Community\VC\Tools\MSVC\14.27.29110\include\xstring
; Line 4293
  006f0	4c 89 6c 24 68	 mov	 QWORD PTR $T119[rsp+16], r13
; Line 4294
  006f5	48 c7 44 24 70
	0f 00 00 00	 mov	 QWORD PTR $T119[rsp+24], 15
; Line 4296
  006fe	c6 44 24 58 00	 mov	 BYTE PTR $T119[rsp], 0
; Line 2984
  00703	41 b8 1a 00 00
	00		 mov	 r8d, 26
  00709	48 8d 15 00 00
	00 00		 lea	 rdx, OFFSET FLAT:??_C@_0BL@NPGHNFLN@Zewnetrzna?5while?5loop?5nr?3?5@
  00710	48 8d 4c 24 58	 lea	 rcx, QWORD PTR $T119[rsp]
  00715	e8 00 00 00 00	 call	 ?assign@?$basic_string@DU?$char_traits@D@std@@V?$allocator@D@2@@std@@QEAAAEAV12@QEBD_K@Z ; std::basic_string<char,std::char_traits<char>,std::allocator<char> >::assign
; File C:\Users\borys\source\repos\calckonsol\interpreter.cpp
; Line 183
  0071a	48 8d 44 24 58	 lea	 rax, QWORD PTR $T119[rsp]
  0071f	48 89 44 24 48	 mov	 QWORD PTR $T123[rsp], rax
; Line 20
  00724	83 3d 00 00 00
	00 01		 cmp	 DWORD PTR ?logi@@3HA, 1	; logi
  0072b	75 23		 jne	 SHORT $LN654@interprete
; File C:\Program Files (x86)\Microsoft Visual Studio\2019\Community\VC\Tools\MSVC\14.27.29110\include\xstring
; Line 2144
  0072d	48 8d 54 24 58	 lea	 rdx, QWORD PTR $T119[rsp]
; Line 2145
  00732	48 83 7c 24 70
	10		 cmp	 QWORD PTR $T119[rsp+24], 16
  00738	48 0f 43 54 24
	58		 cmovae	 rdx, QWORD PTR $T119[rsp]
; Line 4642
  0073e	4c 8b 44 24 68	 mov	 r8, QWORD PTR $T119[rsp+16]
  00743	48 8b 0d 00 00
	00 00		 mov	 rcx, QWORD PTR __imp_?cout@std@@3V?$basic_ostream@DU?$char_traits@D@std@@@1@A
  0074a	e8 00 00 00 00	 call	 ??$_Insert_string@DU?$char_traits@D@std@@_K@std@@YAAEAV?$basic_ostream@DU?$char_traits@D@std@@@0@AEAV10@QEBD_K@Z ; std::_Insert_string<char,std::char_traits<char>,unsigned __int64>
  0074f	90		 npad	 1
$LN654@interprete:
; Line 4301
  00750	48 8b 54 24 70	 mov	 rdx, QWORD PTR $T119[rsp+24]
  00755	48 83 fa 10	 cmp	 rdx, 16
  00759	72 32		 jb	 SHORT $LN711@interprete
; Line 4305
  0075b	48 ff c2	 inc	 rdx
; File C:\Program Files (x86)\Microsoft Visual Studio\2019\Community\VC\Tools\MSVC\14.27.29110\include\xmemory
; Line 803
  0075e	48 8b 4c 24 58	 mov	 rcx, QWORD PTR $T119[rsp]
  00763	48 8b c1	 mov	 rax, rcx
; Line 216
  00766	48 81 fa 00 10
	00 00		 cmp	 rdx, 4096		; 00001000H
  0076d	72 19		 jb	 SHORT $LN721@interprete
; Line 134
  0076f	48 83 c2 27	 add	 rdx, 39			; 00000027H
; Line 137
  00773	48 8b 49 f8	 mov	 rcx, QWORD PTR [rcx-8]
  00777	48 2b c1	 sub	 rax, rcx
; Line 151
  0077a	48 83 c0 f8	 add	 rax, -8
  0077e	48 83 f8 1f	 cmp	 rax, 31
  00782	0f 87 2d 13 00
	00		 ja	 $LN718@interprete
$LN721@interprete:
; Line 221
  00788	e8 00 00 00 00	 call	 ??3@YAXPEAX_K@Z		; operator delete
$LN711@interprete:
; File C:\Users\borys\source\repos\calckonsol\interpreter.cpp
; Line 184
  0078d	41 0f bf c4	 movsx	 eax, r12w
  00791	66 0f 6e f0	 movd	 xmm6, eax
  00795	f3 0f e6 f6	 cvtdq2pd xmm6, xmm6
; Line 41
  00799	83 3d 00 00 00
	00 01		 cmp	 DWORD PTR ?logi@@3HA, 1	; logi
  007a0	75 3e		 jne	 SHORT $LN2566@interprete
; Line 49
  007a2	48 8d 15 00 00
	00 00		 lea	 rdx, OFFSET FLAT:??_C@_01CLKCMJKC@?5@
  007a9	48 8b 0d 00 00
	00 00		 mov	 rcx, QWORD PTR __imp_?cout@std@@3V?$basic_ostream@DU?$char_traits@D@std@@@1@A
  007b0	e8 00 00 00 00	 call	 ??$?6U?$char_traits@D@std@@@std@@YAAEAV?$basic_ostream@DU?$char_traits@D@std@@@0@AEAV10@PEBD@Z ; std::operator<<<std::char_traits<char> >
  007b5	48 8b c8	 mov	 rcx, rax
  007b8	0f 28 ce	 movaps	 xmm1, xmm6
  007bb	ff 15 00 00 00
	00		 call	 QWORD PTR __imp_??6?$basic_ostream@DU?$char_traits@D@std@@@std@@QEAAAEAV01@N@Z
  007c1	48 8b c8	 mov	 rcx, rax
  007c4	48 8d 15 00 00
	00 00		 lea	 rdx, OFFSET FLAT:??_C@_01CLKCMJKC@?5@
  007cb	e8 00 00 00 00	 call	 ??$?6U?$char_traits@D@std@@@std@@YAAEAV?$basic_ostream@DU?$char_traits@D@std@@@0@AEAV10@PEBD@Z ; std::operator<<<std::char_traits<char> >
  007d0	48 8b c8	 mov	 rcx, rax
  007d3	48 8d 15 00 00
	00 00		 lea	 rdx, OFFSET FLAT:??$endl@DU?$char_traits@D@std@@@std@@YAAEAV?$basic_ostream@DU?$char_traits@D@std@@@0@AEAV10@@Z ; std::endl<char,std::char_traits<char> >
  007da	ff 15 00 00 00
	00		 call	 QWORD PTR __imp_??6?$basic_ostream@DU?$char_traits@D@std@@@std@@QEAAAEAV01@P6AAEAV01@AEAV01@@Z@Z
$LN2566@interprete:
; Line 186
  007e0	83 fe ff	 cmp	 esi, -1
  007e3	0f 85 25 03 00
	00		 jne	 $LN5@interprete
  007e9	0f 1f 80 00 00
	00 00		 npad	 7
$LL4@interprete:
  007f0	49 0f bf fc	 movsx	 rdi, r12w
  007f4	66 41 83 fc 06	 cmp	 r12w, 6
  007f9	0f 8d 08 03 00
	00		 jge	 $LN2633@interprete
; File C:\Program Files (x86)\Microsoft Visual Studio\2019\Community\VC\Tools\MSVC\14.27.29110\include\xstring
; Line 4293
  007ff	4c 89 6c 24 68	 mov	 QWORD PTR $T138[rsp+16], r13
; Line 4294
  00804	48 c7 44 24 70
	0f 00 00 00	 mov	 QWORD PTR $T138[rsp+24], 15
; Line 4296
  0080d	c6 44 24 58 00	 mov	 BYTE PTR $T138[rsp], 0
; Line 2984
  00812	41 b8 1a 00 00
	00		 mov	 r8d, 26
  00818	48 8d 15 00 00
	00 00		 lea	 rdx, OFFSET FLAT:??_C@_0BL@BCCIHDDD@Wewnetrzna?5while?5loop?5nr?3?5@
  0081f	48 8d 4c 24 58	 lea	 rcx, QWORD PTR $T138[rsp]
  00824	e8 00 00 00 00	 call	 ?assign@?$basic_string@DU?$char_traits@D@std@@V?$allocator@D@2@@std@@QEAAAEAV12@QEBD_K@Z ; std::basic_string<char,std::char_traits<char>,std::allocator<char> >::assign
; File C:\Users\borys\source\repos\calckonsol\interpreter.cpp
; Line 188
  00829	48 8d 44 24 58	 lea	 rax, QWORD PTR $T138[rsp]
  0082e	48 89 44 24 48	 mov	 QWORD PTR $T142[rsp], rax
; Line 20
  00833	83 3d 00 00 00
	00 01		 cmp	 DWORD PTR ?logi@@3HA, 1	; logi
  0083a	75 23		 jne	 SHORT $LN746@interprete
; File C:\Program Files (x86)\Microsoft Visual Studio\2019\Community\VC\Tools\MSVC\14.27.29110\include\xstring
; Line 2144
  0083c	48 8d 54 24 58	 lea	 rdx, QWORD PTR $T138[rsp]
; Line 2145
  00841	48 83 7c 24 70
	10		 cmp	 QWORD PTR $T138[rsp+24], 16
  00847	48 0f 43 54 24
	58		 cmovae	 rdx, QWORD PTR $T138[rsp]
; Line 4642
  0084d	4c 8b 44 24 68	 mov	 r8, QWORD PTR $T138[rsp+16]
  00852	48 8b 0d 00 00
	00 00		 mov	 rcx, QWORD PTR __imp_?cout@std@@3V?$basic_ostream@DU?$char_traits@D@std@@@1@A
  00859	e8 00 00 00 00	 call	 ??$_Insert_string@DU?$char_traits@D@std@@_K@std@@YAAEAV?$basic_ostream@DU?$char_traits@D@std@@@0@AEAV10@QEBD_K@Z ; std::_Insert_string<char,std::char_traits<char>,unsigned __int64>
  0085e	90		 npad	 1
$LN746@interprete:
; Line 4301
  0085f	48 8b 54 24 70	 mov	 rdx, QWORD PTR $T138[rsp+24]
  00864	48 83 fa 10	 cmp	 rdx, 16
  00868	72 32		 jb	 SHORT $LN803@interprete
; Line 4305
  0086a	48 ff c2	 inc	 rdx
; File C:\Program Files (x86)\Microsoft Visual Studio\2019\Community\VC\Tools\MSVC\14.27.29110\include\xmemory
; Line 803
  0086d	48 8b 4c 24 58	 mov	 rcx, QWORD PTR $T138[rsp]
  00872	48 8b c1	 mov	 rax, rcx
; Line 216
  00875	48 81 fa 00 10
	00 00		 cmp	 rdx, 4096		; 00001000H
  0087c	72 19		 jb	 SHORT $LN813@interprete
; Line 134
  0087e	48 83 c2 27	 add	 rdx, 39			; 00000027H
; Line 137
  00882	48 8b 49 f8	 mov	 rcx, QWORD PTR [rcx-8]
  00886	48 2b c1	 sub	 rax, rcx
; Line 151
  00889	48 83 c0 f8	 add	 rax, -8
  0088d	48 83 f8 1f	 cmp	 rax, 31
  00891	0f 87 25 12 00
	00		 ja	 $LN810@interprete
$LN813@interprete:
; Line 221
  00897	e8 00 00 00 00	 call	 ??3@YAXPEAX_K@Z		; operator delete
$LN803@interprete:
; File C:\Users\borys\source\repos\calckonsol\interpreter.cpp
; Line 189
  0089c	41 0f bf c4	 movsx	 eax, r12w
  008a0	66 0f 6e f0	 movd	 xmm6, eax
  008a4	f3 0f e6 f6	 cvtdq2pd xmm6, xmm6
; Line 41
  008a8	83 3d 00 00 00
	00 01		 cmp	 DWORD PTR ?logi@@3HA, 1	; logi
  008af	75 3e		 jne	 SHORT $LN823@interprete
; Line 49
  008b1	48 8d 15 00 00
	00 00		 lea	 rdx, OFFSET FLAT:??_C@_01CLKCMJKC@?5@
  008b8	48 8b 0d 00 00
	00 00		 mov	 rcx, QWORD PTR __imp_?cout@std@@3V?$basic_ostream@DU?$char_traits@D@std@@@1@A
  008bf	e8 00 00 00 00	 call	 ??$?6U?$char_traits@D@std@@@std@@YAAEAV?$basic_ostream@DU?$char_traits@D@std@@@0@AEAV10@PEBD@Z ; std::operator<<<std::char_traits<char> >
  008c4	48 8b c8	 mov	 rcx, rax
  008c7	0f 28 ce	 movaps	 xmm1, xmm6
  008ca	ff 15 00 00 00
	00		 call	 QWORD PTR __imp_??6?$basic_ostream@DU?$char_traits@D@std@@@std@@QEAAAEAV01@N@Z
  008d0	48 8b c8	 mov	 rcx, rax
  008d3	48 8d 15 00 00
	00 00		 lea	 rdx, OFFSET FLAT:??_C@_01CLKCMJKC@?5@
  008da	e8 00 00 00 00	 call	 ??$?6U?$char_traits@D@std@@@std@@YAAEAV?$basic_ostream@DU?$char_traits@D@std@@@0@AEAV10@PEBD@Z ; std::operator<<<std::char_traits<char> >
  008df	48 8b c8	 mov	 rcx, rax
  008e2	48 8d 15 00 00
	00 00		 lea	 rdx, OFFSET FLAT:??$endl@DU?$char_traits@D@std@@@std@@YAAEAV?$basic_ostream@DU?$char_traits@D@std@@@0@AEAV10@@Z ; std::endl<char,std::char_traits<char> >
  008e9	ff 15 00 00 00
	00		 call	 QWORD PTR __imp_??6?$basic_ostream@DU?$char_traits@D@std@@@std@@QEAAAEAV01@P6AAEAV01@AEAV01@@Z@Z
$LN823@interprete:
; Line 190
  008ef	66 41 ff c4	 inc	 r12w
; Line 192
  008f3	49 0f bf c4	 movsx	 rax, r12w
; File C:\Program Files (x86)\Microsoft Visual Studio\2019\Community\VC\Tools\MSVC\14.27.29110\include\xstring
; Line 2144
  008f7	48 8d 5c 24 78	 lea	 rbx, QWORD PTR str$[rsp]
; Line 2145
  008fc	48 83 7d 90 10	 cmp	 QWORD PTR str$[rbp-232], 16
  00901	48 0f 43 5c 24
	78		 cmovae	 rbx, QWORD PTR str$[rsp]
; Line 566
  00907	4c 8b 45 88	 mov	 r8, QWORD PTR str$[rbp-240]
  0090b	4d 85 c0	 test	 r8, r8
  0090e	74 21		 je	 SHORT $LN834@interprete
; Line 356
  00910	48 8d 0d 00 00
	00 00		 lea	 rcx, OFFSET FLAT:__ImageBase
  00917	0f be 94 08 00
	00 00 00	 movsx	 edx, BYTE PTR ?chars@@3QBDB[rax+rcx]
  0091f	48 8b cb	 mov	 rcx, rbx
  00922	e8 00 00 00 00	 call	 memchr
; Line 568
  00927	48 85 c0	 test	 rax, rax
  0092a	74 05		 je	 SHORT $LN834@interprete
; Line 569
  0092c	48 2b c3	 sub	 rax, rbx
  0092f	eb 07		 jmp	 SHORT $LN832@interprete
$LN834@interprete:
; Line 573
  00931	48 c7 c0 ff ff
	ff ff		 mov	 rax, -1
$LN832@interprete:
; File C:\Users\borys\source\repos\calckonsol\interpreter.cpp
; Line 192
  00938	8b f0		 mov	 esi, eax
; File C:\Program Files (x86)\Microsoft Visual Studio\2019\Community\VC\Tools\MSVC\14.27.29110\include\xstring
; Line 4293
  0093a	4c 89 6c 24 68	 mov	 QWORD PTR $T161[rsp+16], r13
; Line 4294
  0093f	48 c7 44 24 70
	0f 00 00 00	 mov	 QWORD PTR $T161[rsp+24], 15
; Line 4296
  00948	c6 44 24 58 00	 mov	 BYTE PTR $T161[rsp], 0
; Line 2984
  0094d	41 b8 15 00 00
	00		 mov	 r8d, 21
  00953	48 8d 15 00 00
	00 00		 lea	 rdx, OFFSET FLAT:??_C@_0BG@POBPPMBB@Pozycja?5znaku?5nowa?5?3?5@
  0095a	48 8d 4c 24 58	 lea	 rcx, QWORD PTR $T161[rsp]
  0095f	e8 00 00 00 00	 call	 ?assign@?$basic_string@DU?$char_traits@D@std@@V?$allocator@D@2@@std@@QEAAAEAV12@QEBD_K@Z ; std::basic_string<char,std::char_traits<char>,std::allocator<char> >::assign
; File C:\Users\borys\source\repos\calckonsol\interpreter.cpp
; Line 193
  00964	48 8d 44 24 58	 lea	 rax, QWORD PTR $T161[rsp]
  00969	48 89 44 24 48	 mov	 QWORD PTR $T165[rsp], rax
; Line 20
  0096e	83 3d 00 00 00
	00 01		 cmp	 DWORD PTR ?logi@@3HA, 1	; logi
  00975	75 23		 jne	 SHORT $LN851@interprete
; File C:\Program Files (x86)\Microsoft Visual Studio\2019\Community\VC\Tools\MSVC\14.27.29110\include\xstring
; Line 2144
  00977	48 8d 54 24 58	 lea	 rdx, QWORD PTR $T161[rsp]
; Line 2145
  0097c	48 83 7c 24 70
	10		 cmp	 QWORD PTR $T161[rsp+24], 16
  00982	48 0f 43 54 24
	58		 cmovae	 rdx, QWORD PTR $T161[rsp]
; Line 4642
  00988	4c 8b 44 24 68	 mov	 r8, QWORD PTR $T161[rsp+16]
  0098d	48 8b 0d 00 00
	00 00		 mov	 rcx, QWORD PTR __imp_?cout@std@@3V?$basic_ostream@DU?$char_traits@D@std@@@1@A
  00994	e8 00 00 00 00	 call	 ??$_Insert_string@DU?$char_traits@D@std@@_K@std@@YAAEAV?$basic_ostream@DU?$char_traits@D@std@@@0@AEAV10@QEBD_K@Z ; std::_Insert_string<char,std::char_traits<char>,unsigned __int64>
  00999	90		 npad	 1
$LN851@interprete:
; Line 4301
  0099a	48 8b 54 24 70	 mov	 rdx, QWORD PTR $T161[rsp+24]
  0099f	48 83 fa 10	 cmp	 rdx, 16
  009a3	72 32		 jb	 SHORT $LN908@interprete
; Line 4305
  009a5	48 ff c2	 inc	 rdx
; File C:\Program Files (x86)\Microsoft Visual Studio\2019\Community\VC\Tools\MSVC\14.27.29110\include\xmemory
; Line 803
  009a8	48 8b 4c 24 58	 mov	 rcx, QWORD PTR $T161[rsp]
  009ad	48 8b c1	 mov	 rax, rcx
; Line 216
  009b0	48 81 fa 00 10
	00 00		 cmp	 rdx, 4096		; 00001000H
  009b7	72 19		 jb	 SHORT $LN918@interprete
; Line 134
  009b9	48 83 c2 27	 add	 rdx, 39			; 00000027H
; Line 137
  009bd	48 8b 49 f8	 mov	 rcx, QWORD PTR [rcx-8]
  009c1	48 2b c1	 sub	 rax, rcx
; Line 151
  009c4	48 83 c0 f8	 add	 rax, -8
  009c8	48 83 f8 1f	 cmp	 rax, 31
  009cc	0f 87 f1 10 00
	00		 ja	 $LN915@interprete
$LN918@interprete:
; Line 221
  009d2	e8 00 00 00 00	 call	 ??3@YAXPEAX_K@Z		; operator delete
$LN908@interprete:
  009d7	66 0f 6e f6	 movd	 xmm6, esi
; File C:\Users\borys\source\repos\calckonsol\interpreter.cpp
; Line 194
  009db	f3 0f e6 f6	 cvtdq2pd xmm6, xmm6
; Line 41
  009df	83 3d 00 00 00
	00 01		 cmp	 DWORD PTR ?logi@@3HA, 1	; logi
  009e6	75 3e		 jne	 SHORT $LN928@interprete
; Line 49
  009e8	48 8d 15 00 00
	00 00		 lea	 rdx, OFFSET FLAT:??_C@_01CLKCMJKC@?5@
  009ef	48 8b 0d 00 00
	00 00		 mov	 rcx, QWORD PTR __imp_?cout@std@@3V?$basic_ostream@DU?$char_traits@D@std@@@1@A
  009f6	e8 00 00 00 00	 call	 ??$?6U?$char_traits@D@std@@@std@@YAAEAV?$basic_ostream@DU?$char_traits@D@std@@@0@AEAV10@PEBD@Z ; std::operator<<<std::char_traits<char> >
  009fb	48 8b c8	 mov	 rcx, rax
  009fe	0f 28 ce	 movaps	 xmm1, xmm6
  00a01	ff 15 00 00 00
	00		 call	 QWORD PTR __imp_??6?$basic_ostream@DU?$char_traits@D@std@@@std@@QEAAAEAV01@N@Z
  00a07	48 8b c8	 mov	 rcx, rax
  00a0a	48 8d 15 00 00
	00 00		 lea	 rdx, OFFSET FLAT:??_C@_01CLKCMJKC@?5@
  00a11	e8 00 00 00 00	 call	 ??$?6U?$char_traits@D@std@@@std@@YAAEAV?$basic_ostream@DU?$char_traits@D@std@@@0@AEAV10@PEBD@Z ; std::operator<<<std::char_traits<char> >
  00a16	48 8b c8	 mov	 rcx, rax
  00a19	48 8d 15 00 00
	00 00		 lea	 rdx, OFFSET FLAT:??$endl@DU?$char_traits@D@std@@@std@@YAAEAV?$basic_ostream@DU?$char_traits@D@std@@@0@AEAV10@@Z ; std::endl<char,std::char_traits<char> >
  00a20	ff 15 00 00 00
	00		 call	 QWORD PTR __imp_??6?$basic_ostream@DU?$char_traits@D@std@@@std@@QEAAAEAV01@P6AAEAV01@AEAV01@@Z@Z
$LN928@interprete:
; Line 195
  00a26	83 fe ff	 cmp	 esi, -1
  00a29	7f 0b		 jg	 SHORT $LN2617@interprete
; Line 186
  00a2b	0f 85 d6 00 00
	00		 jne	 $LN2633@interprete
  00a31	e9 ba fd ff ff	 jmp	 $LL4@interprete
$LN2617@interprete:
; File C:\Program Files (x86)\Microsoft Visual Studio\2019\Community\VC\Tools\MSVC\14.27.29110\include\xstring
; Line 4293
  00a36	4c 89 6c 24 68	 mov	 QWORD PTR $T180[rsp+16], r13
; Line 4294
  00a3b	48 c7 44 24 70
	0f 00 00 00	 mov	 QWORD PTR $T180[rsp+24], 15
; Line 4296
  00a44	c6 44 24 58 00	 mov	 BYTE PTR $T180[rsp], 0
; Line 2984
  00a49	41 b8 0c 00 00
	00		 mov	 r8d, 12
  00a4f	48 8d 15 00 00
	00 00		 lea	 rdx, OFFSET FLAT:??_C@_0N@MPEBBJGL@Jaki?5znak?5?3?5@
  00a56	48 8d 4c 24 58	 lea	 rcx, QWORD PTR $T180[rsp]
  00a5b	e8 00 00 00 00	 call	 ?assign@?$basic_string@DU?$char_traits@D@std@@V?$allocator@D@2@@std@@QEAAAEAV12@QEBD_K@Z ; std::basic_string<char,std::char_traits<char>,std::allocator<char> >::assign
; File C:\Users\borys\source\repos\calckonsol\interpreter.cpp
; Line 197
  00a60	48 8d 44 24 58	 lea	 rax, QWORD PTR $T180[rsp]
  00a65	48 89 44 24 48	 mov	 QWORD PTR $T184[rsp], rax
; Line 20
  00a6a	83 3d 00 00 00
	00 01		 cmp	 DWORD PTR ?logi@@3HA, 1	; logi
  00a71	75 23		 jne	 SHORT $LN943@interprete
; File C:\Program Files (x86)\Microsoft Visual Studio\2019\Community\VC\Tools\MSVC\14.27.29110\include\xstring
; Line 2144
  00a73	48 8d 54 24 58	 lea	 rdx, QWORD PTR $T180[rsp]
; Line 2145
  00a78	48 83 7c 24 70
	10		 cmp	 QWORD PTR $T180[rsp+24], 16
  00a7e	48 0f 43 54 24
	58		 cmovae	 rdx, QWORD PTR $T180[rsp]
; Line 4642
  00a84	4c 8b 44 24 68	 mov	 r8, QWORD PTR $T180[rsp+16]
  00a89	48 8b 0d 00 00
	00 00		 mov	 rcx, QWORD PTR __imp_?cout@std@@3V?$basic_ostream@DU?$char_traits@D@std@@@1@A
  00a90	e8 00 00 00 00	 call	 ??$_Insert_string@DU?$char_traits@D@std@@_K@std@@YAAEAV?$basic_ostream@DU?$char_traits@D@std@@@0@AEAV10@QEBD_K@Z ; std::_Insert_string<char,std::char_traits<char>,unsigned __int64>
  00a95	90		 npad	 1
$LN943@interprete:
; Line 4301
  00a96	48 8b 54 24 70	 mov	 rdx, QWORD PTR $T180[rsp+24]
  00a9b	48 83 fa 10	 cmp	 rdx, 16
  00a9f	72 32		 jb	 SHORT $LN1000@interprete
; Line 4305
  00aa1	48 ff c2	 inc	 rdx
; File C:\Program Files (x86)\Microsoft Visual Studio\2019\Community\VC\Tools\MSVC\14.27.29110\include\xmemory
; Line 803
  00aa4	48 8b 4c 24 58	 mov	 rcx, QWORD PTR $T180[rsp]
  00aa9	48 8b c1	 mov	 rax, rcx
; Line 216
  00aac	48 81 fa 00 10
	00 00		 cmp	 rdx, 4096		; 00001000H
  00ab3	72 19		 jb	 SHORT $LN1010@interprete
; Line 134
  00ab5	48 83 c2 27	 add	 rdx, 39			; 00000027H
; Line 137
  00ab9	48 8b 49 f8	 mov	 rcx, QWORD PTR [rcx-8]
  00abd	48 2b c1	 sub	 rax, rcx
; Line 151
  00ac0	48 83 c0 f8	 add	 rax, -8
  00ac4	48 83 f8 1f	 cmp	 rax, 31
  00ac8	0f 87 fc 0f 00
	00		 ja	 $LN1007@interprete
$LN1010@interprete:
; Line 221
  00ace	e8 00 00 00 00	 call	 ??3@YAXPEAX_K@Z		; operator delete
$LN1000@interprete:
; File C:\Users\borys\source\repos\calckonsol\interpreter.cpp
; Line 55
  00ad3	83 3d 00 00 00
	00 01		 cmp	 DWORD PTR ?logi@@3HA, 1	; logi
  00ada	75 2b		 jne	 SHORT $LN2633@interprete
; Line 57
  00adc	48 8d 0d 00 00
	00 00		 lea	 rcx, OFFSET FLAT:__ImageBase
  00ae3	0f b6 94 0f 01
	00 00 00	 movzx	 edx, BYTE PTR ?chars@@3QBDB[rdi+rcx+1]
  00aeb	48 8b 0d 00 00
	00 00		 mov	 rcx, QWORD PTR __imp_?cout@std@@3V?$basic_ostream@DU?$char_traits@D@std@@@1@A
  00af2	e8 00 00 00 00	 call	 ??$?6U?$char_traits@D@std@@@std@@YAAEAV?$basic_ostream@DU?$char_traits@D@std@@@0@AEAV10@D@Z ; std::operator<<<std::char_traits<char> >
  00af7	48 8b c8	 mov	 rcx, rax
  00afa	48 8d 15 00 00
	00 00		 lea	 rdx, OFFSET FLAT:??$endl@DU?$char_traits@D@std@@@std@@YAAEAV?$basic_ostream@DU?$char_traits@D@std@@@0@AEAV10@@Z ; std::endl<char,std::char_traits<char> >
  00b01	ff 15 00 00 00
	00		 call	 QWORD PTR __imp_??6?$basic_ostream@DU?$char_traits@D@std@@@std@@QEAAAEAV01@P6AAEAV01@AEAV01@@Z@Z
$LN2633@interprete:
; Line 203
  00b07	48 c7 c7 ff ff
	ff ff		 mov	 rdi, -1
$LN5@interprete:
  00b0e	66 41 83 fc 06	 cmp	 r12w, 6
  00b13	0f 84 28 10 00
	00		 je	 $LN2576@interprete
; Line 210
  00b19	83 fe ff	 cmp	 esi, -1
  00b1c	0f 84 be fb ff
	ff		 je	 $LL2@interprete
; Line 212
  00b22	48 8d 44 24 20	 lea	 rax, QWORD PTR $T237[rsp]
  00b27	48 89 44 24 48	 mov	 QWORD PTR $T241[rsp], rax
  00b2c	0f 1f 40 00	 npad	 4
$LL6@interprete:
; File C:\Program Files (x86)\Microsoft Visual Studio\2019\Community\VC\Tools\MSVC\14.27.29110\include\xstring
; Line 4293
  00b30	4c 89 6c 24 30	 mov	 QWORD PTR $T237[rsp+16], r13
; Line 4294
  00b35	48 c7 44 24 38
	0f 00 00 00	 mov	 QWORD PTR $T237[rsp+24], 15
; Line 4296
  00b3e	c6 44 24 20 00	 mov	 BYTE PTR $T237[rsp], 0
; Line 2984
  00b43	41 b8 26 00 00
	00		 mov	 r8d, 38			; 00000026H
  00b49	48 8d 15 00 00
	00 00		 lea	 rdx, OFFSET FLAT:??_C@_0CH@DKNCFBCP@Znaleziono?5znak?0?5szukanie?5znako@
  00b50	48 8d 4c 24 20	 lea	 rcx, QWORD PTR $T237[rsp]
  00b55	e8 00 00 00 00	 call	 ?assign@?$basic_string@DU?$char_traits@D@std@@V?$allocator@D@2@@std@@QEAAAEAV12@QEBD_K@Z ; std::basic_string<char,std::char_traits<char>,std::allocator<char> >::assign
  00b5a	90		 npad	 1
; File C:\Users\borys\source\repos\calckonsol\interpreter.cpp
; Line 24
  00b5b	83 3d 00 00 00
	00 01		 cmp	 DWORD PTR ?logi@@3HA, 1	; logi
  00b62	75 33		 jne	 SHORT $LN1208@interprete
; File C:\Program Files (x86)\Microsoft Visual Studio\2019\Community\VC\Tools\MSVC\14.27.29110\include\xstring
; Line 2144
  00b64	48 8d 54 24 20	 lea	 rdx, QWORD PTR $T237[rsp]
; Line 2145
  00b69	48 83 7c 24 38
	10		 cmp	 QWORD PTR $T237[rsp+24], 16
  00b6f	48 0f 43 54 24
	20		 cmovae	 rdx, QWORD PTR $T237[rsp]
; Line 4642
  00b75	4c 8b 44 24 30	 mov	 r8, QWORD PTR $T237[rsp+16]
  00b7a	48 8b 0d 00 00
	00 00		 mov	 rcx, QWORD PTR __imp_?cout@std@@3V?$basic_ostream@DU?$char_traits@D@std@@@1@A
  00b81	e8 00 00 00 00	 call	 ??$_Insert_string@DU?$char_traits@D@std@@_K@std@@YAAEAV?$basic_ostream@DU?$char_traits@D@std@@@0@AEAV10@QEBD_K@Z ; std::_Insert_string<char,std::char_traits<char>,unsigned __int64>
  00b86	48 8b c8	 mov	 rcx, rax
; File C:\Users\borys\source\repos\calckonsol\interpreter.cpp
; Line 26
  00b89	48 8d 15 00 00
	00 00		 lea	 rdx, OFFSET FLAT:??$endl@DU?$char_traits@D@std@@@std@@YAAEAV?$basic_ostream@DU?$char_traits@D@std@@@0@AEAV10@@Z ; std::endl<char,std::char_traits<char> >
  00b90	ff 15 00 00 00
	00		 call	 QWORD PTR __imp_??6?$basic_ostream@DU?$char_traits@D@std@@@std@@QEAAAEAV01@P6AAEAV01@AEAV01@@Z@Z
  00b96	90		 npad	 1
$LN1208@interprete:
; File C:\Program Files (x86)\Microsoft Visual Studio\2019\Community\VC\Tools\MSVC\14.27.29110\include\xstring
; Line 4301
  00b97	48 8b 54 24 38	 mov	 rdx, QWORD PTR $T237[rsp+24]
  00b9c	48 83 fa 10	 cmp	 rdx, 16
  00ba0	72 32		 jb	 SHORT $LN1263@interprete
; Line 4305
  00ba2	48 ff c2	 inc	 rdx
; File C:\Program Files (x86)\Microsoft Visual Studio\2019\Community\VC\Tools\MSVC\14.27.29110\include\xmemory
; Line 803
  00ba5	48 8b 4c 24 20	 mov	 rcx, QWORD PTR $T237[rsp]
  00baa	48 8b c1	 mov	 rax, rcx
; Line 216
  00bad	48 81 fa 00 10
	00 00		 cmp	 rdx, 4096		; 00001000H
  00bb4	72 19		 jb	 SHORT $LN1273@interprete
; Line 134
  00bb6	48 83 c2 27	 add	 rdx, 39			; 00000027H
; Line 137
  00bba	48 8b 49 f8	 mov	 rcx, QWORD PTR [rcx-8]
  00bbe	48 2b c1	 sub	 rax, rcx
; Line 151
  00bc1	48 83 c0 f8	 add	 rax, -8
  00bc5	48 83 f8 1f	 cmp	 rax, 31
  00bc9	0f 87 02 0f 00
	00		 ja	 $LN1270@interprete
$LN1273@interprete:
; Line 221
  00bcf	e8 00 00 00 00	 call	 ??3@YAXPEAX_K@Z		; operator delete
$LN1263@interprete:
; File C:\Program Files (x86)\Microsoft Visual Studio\2019\Community\VC\Tools\MSVC\14.27.29110\include\xstring
; Line 4293
  00bd4	4c 89 6c 24 30	 mov	 QWORD PTR $T256[rsp+16], r13
; Line 4294
  00bd9	48 c7 44 24 38
	0f 00 00 00	 mov	 QWORD PTR $T256[rsp+24], 15
; Line 4296
  00be2	c6 44 24 20 00	 mov	 BYTE PTR $T256[rsp], 0
; Line 2984
  00be7	45 33 c0	 xor	 r8d, r8d
  00bea	48 8d 15 00 00
	00 00		 lea	 rdx, OFFSET FLAT:??_C@_00CNPNBAHC@@
  00bf1	48 8d 4c 24 20	 lea	 rcx, QWORD PTR $T256[rsp]
  00bf6	e8 00 00 00 00	 call	 ?assign@?$basic_string@DU?$char_traits@D@std@@V?$allocator@D@2@@std@@QEAAAEAV12@QEBD_K@Z ; std::basic_string<char,std::char_traits<char>,std::allocator<char> >::assign
; File C:\Users\borys\source\repos\calckonsol\interpreter.cpp
; Line 213
  00bfb	48 8d 44 24 20	 lea	 rax, QWORD PTR $T256[rsp]
  00c00	48 89 44 24 40	 mov	 QWORD PTR $T260[rsp], rax
; Line 24
  00c05	83 3d 00 00 00
	00 01		 cmp	 DWORD PTR ?logi@@3HA, 1	; logi
  00c0c	75 33		 jne	 SHORT $LN1294@interprete
; File C:\Program Files (x86)\Microsoft Visual Studio\2019\Community\VC\Tools\MSVC\14.27.29110\include\xstring
; Line 2144
  00c0e	48 8d 54 24 20	 lea	 rdx, QWORD PTR $T256[rsp]
; Line 2145
  00c13	48 83 7c 24 38
	10		 cmp	 QWORD PTR $T256[rsp+24], 16
  00c19	48 0f 43 54 24
	20		 cmovae	 rdx, QWORD PTR $T256[rsp]
; Line 4642
  00c1f	4c 8b 44 24 30	 mov	 r8, QWORD PTR $T256[rsp+16]
  00c24	48 8b 0d 00 00
	00 00		 mov	 rcx, QWORD PTR __imp_?cout@std@@3V?$basic_ostream@DU?$char_traits@D@std@@@1@A
  00c2b	e8 00 00 00 00	 call	 ??$_Insert_string@DU?$char_traits@D@std@@_K@std@@YAAEAV?$basic_ostream@DU?$char_traits@D@std@@@0@AEAV10@QEBD_K@Z ; std::_Insert_string<char,std::char_traits<char>,unsigned __int64>
  00c30	48 8b c8	 mov	 rcx, rax
; File C:\Users\borys\source\repos\calckonsol\interpreter.cpp
; Line 26
  00c33	48 8d 15 00 00
	00 00		 lea	 rdx, OFFSET FLAT:??$endl@DU?$char_traits@D@std@@@std@@YAAEAV?$basic_ostream@DU?$char_traits@D@std@@@0@AEAV10@@Z ; std::endl<char,std::char_traits<char> >
  00c3a	ff 15 00 00 00
	00		 call	 QWORD PTR __imp_??6?$basic_ostream@DU?$char_traits@D@std@@@std@@QEAAAEAV01@P6AAEAV01@AEAV01@@Z@Z
  00c40	90		 npad	 1
$LN1294@interprete:
; File C:\Program Files (x86)\Microsoft Visual Studio\2019\Community\VC\Tools\MSVC\14.27.29110\include\xstring
; Line 4301
  00c41	48 8b 54 24 38	 mov	 rdx, QWORD PTR $T256[rsp+24]
  00c46	48 83 fa 10	 cmp	 rdx, 16
  00c4a	72 32		 jb	 SHORT $LN1349@interprete
; Line 4305
  00c4c	48 ff c2	 inc	 rdx
; File C:\Program Files (x86)\Microsoft Visual Studio\2019\Community\VC\Tools\MSVC\14.27.29110\include\xmemory
; Line 803
  00c4f	48 8b 4c 24 20	 mov	 rcx, QWORD PTR $T256[rsp]
  00c54	48 8b c1	 mov	 rax, rcx
; Line 216
  00c57	48 81 fa 00 10
	00 00		 cmp	 rdx, 4096		; 00001000H
  00c5e	72 19		 jb	 SHORT $LN1359@interprete
; Line 134
  00c60	48 83 c2 27	 add	 rdx, 39			; 00000027H
; Line 137
  00c64	48 8b 49 f8	 mov	 rcx, QWORD PTR [rcx-8]
  00c68	48 2b c1	 sub	 rax, rcx
; Line 151
  00c6b	48 83 c0 f8	 add	 rax, -8
  00c6f	48 83 f8 1f	 cmp	 rax, 31
  00c73	0f 87 5f 0e 00
	00		 ja	 $LN1356@interprete
$LN1359@interprete:
; Line 221
  00c79	e8 00 00 00 00	 call	 ??3@YAXPEAX_K@Z		; operator delete
$LN1349@interprete:
; File C:\Users\borys\source\repos\calckonsol\interpreter.cpp
; Line 215
  00c7e	66 44 89 35 00
	00 00 00	 mov	 WORD PTR ?min_za@@3FA, r14w ; min_za
; Line 216
  00c86	66 89 3d 00 00
	00 00		 mov	 WORD PTR ?min_przed@@3FA, di ; min_przed
; File C:\Program Files (x86)\Microsoft Visual Studio\2019\Community\VC\Tools\MSVC\14.27.29110\include\xstring
; Line 4293
  00c8d	4c 89 6c 24 68	 mov	 QWORD PTR war_lewa$541[rsp+16], r13
; Line 4294
  00c92	48 c7 44 24 70
	0f 00 00 00	 mov	 QWORD PTR war_lewa$541[rsp+24], 15
; Line 4296
  00c9b	c6 44 24 58 00	 mov	 BYTE PTR war_lewa$541[rsp], 0
; Line 4293
  00ca0	4c 89 6d c8	 mov	 QWORD PTR war_prawa$542[rbp-240], r13
; Line 4294
  00ca4	48 c7 45 d0 0f
	00 00 00	 mov	 QWORD PTR war_prawa$542[rbp-232], 15
; Line 4296
  00cac	c6 45 b8 00	 mov	 BYTE PTR war_prawa$542[rbp-256], 0
; Line 4293
  00cb0	4c 89 6d e8	 mov	 QWORD PTR war_wyraz$543[rbp-240], r13
; Line 4294
  00cb4	48 c7 45 f0 0f
	00 00 00	 mov	 QWORD PTR war_wyraz$543[rbp-232], 15
; Line 4296
  00cbc	c6 45 d8 00	 mov	 BYTE PTR war_wyraz$543[rbp-256], 0
; Line 4293
  00cc0	4c 89 6d 08	 mov	 QWORD PTR wynik_str$544[rbp-240], r13
; Line 4294
  00cc4	48 c7 45 10 0f
	00 00 00	 mov	 QWORD PTR wynik_str$544[rbp-232], 15
; Line 4296
  00ccc	c6 45 f8 00	 mov	 BYTE PTR wynik_str$544[rbp-256], 0
; Line 2124
  00cd0	4c 89 6c 24 30	 mov	 QWORD PTR $T279[rsp+16], r13
  00cd5	4c 89 6c 24 38	 mov	 QWORD PTR $T279[rsp+24], r13
; Line 2656
  00cda	48 8b 7d 88	 mov	 rdi, QWORD PTR str$[rbp-240]
; Line 2144
  00cde	4c 8d 74 24 78	 lea	 r14, QWORD PTR str$[rsp]
; Line 2145
  00ce3	48 83 7d 90 10	 cmp	 QWORD PTR str$[rbp-232], 16
  00ce8	4c 0f 43 74 24
	78		 cmovae	 r14, QWORD PTR str$[rsp]
; Line 2659
  00cee	48 83 ff 10	 cmp	 rdi, 16
  00cf2	73 14		 jae	 SHORT $LN1408@interprete
; Line 328
  00cf4	41 0f 10 06	 movups	 xmm0, XMMWORD PTR [r14]
  00cf8	0f 11 44 24 20	 movups	 XMMWORD PTR $T279[rsp], xmm0
; Line 2662
  00cfd	48 c7 44 24 38
	0f 00 00 00	 mov	 QWORD PTR $T279[rsp+24], 15
; Line 2663
  00d06	eb 7c		 jmp	 SHORT $LN2638@interprete
$LN1408@interprete:
; Line 2667
  00d08	48 8b df	 mov	 rbx, rdi
  00d0b	48 83 cb 0f	 or	 rbx, 15
  00d0f	48 b8 ff ff ff
	ff ff ff ff 7f	 mov	 rax, 9223372036854775807 ; 7fffffffffffffffH
  00d19	48 3b d8	 cmp	 rbx, rax
  00d1c	48 0f 47 d8	 cmova	 rbx, rax
; Line 2668
  00d20	48 8d 4b 01	 lea	 rcx, QWORD PTR [rbx+1]
; File C:\Program Files (x86)\Microsoft Visual Studio\2019\Community\VC\Tools\MSVC\14.27.29110\include\xmemory
; Line 200
  00d24	48 81 f9 00 10
	00 00		 cmp	 rcx, 4096		; 00001000H
  00d2b	72 2f		 jb	 SHORT $LN1422@interprete
; Line 115
  00d2d	48 8d 41 27	 lea	 rax, QWORD PTR [rcx+39]
; Line 116
  00d31	48 3b c1	 cmp	 rax, rcx
  00d34	0f 86 28 10 00
	00		 jbe	 $LN2570@interprete
; Line 77
  00d3a	48 8b c8	 mov	 rcx, rax
  00d3d	e8 00 00 00 00	 call	 ??2@YAPEAX_K@Z		; operator new
  00d42	48 8b c8	 mov	 rcx, rax
; Line 121
  00d45	48 85 c0	 test	 rax, rax
  00d48	0f 84 91 0d 00
	00		 je	 $LN1431@interprete
; Line 122
  00d4e	48 83 c0 27	 add	 rax, 39			; 00000027H
  00d52	48 83 e0 e0	 and	 rax, -32		; ffffffffffffffe0H
; Line 123
  00d56	48 89 48 f8	 mov	 QWORD PTR [rax-8], rcx
; Line 201
  00d5a	eb 0f		 jmp	 SHORT $LN1421@interprete
$LN1422@interprete:
; Line 205
  00d5c	48 85 c9	 test	 rcx, rcx
  00d5f	74 07		 je	 SHORT $LN1423@interprete
; Line 77
  00d61	e8 00 00 00 00	 call	 ??2@YAPEAX_K@Z		; operator new
; Line 206
  00d66	eb 03		 jmp	 SHORT $LN1421@interprete
$LN1423@interprete:
; Line 209
  00d68	49 8b c5	 mov	 rax, r13
$LN1421@interprete:
; File C:\Program Files (x86)\Microsoft Visual Studio\2019\Community\VC\Tools\MSVC\14.27.29110\include\xstring
; Line 2669
  00d6b	48 89 44 24 20	 mov	 QWORD PTR $T279[rsp], rax
; Line 2670
  00d70	4c 8d 47 01	 lea	 r8, QWORD PTR [rdi+1]
; Line 328
  00d74	49 8b d6	 mov	 rdx, r14
  00d77	48 8b c8	 mov	 rcx, rax
  00d7a	e8 00 00 00 00	 call	 memcpy
; Line 2672
  00d7f	48 89 5c 24 38	 mov	 QWORD PTR $T279[rsp+24], rbx
$LN2638@interprete:
; File C:\Users\borys\source\repos\calckonsol\interpreter.cpp
; Line 221
  00d84	48 89 7c 24 30	 mov	 QWORD PTR $T279[rsp+16], rdi
  00d89	0f b7 d6	 movzx	 edx, si
  00d8c	48 8d 4c 24 20	 lea	 rcx, QWORD PTR $T279[rsp]
  00d91	e8 00 00 00 00	 call	 ?petla_za@@YA_JV?$basic_string@DU?$char_traits@D@std@@V?$allocator@D@2@@std@@FF@Z ; petla_za
; File C:\Program Files (x86)\Microsoft Visual Studio\2019\Community\VC\Tools\MSVC\14.27.29110\include\xstring
; Line 2124
  00d96	4c 89 6c 24 30	 mov	 QWORD PTR $T289[rsp+16], r13
  00d9b	4c 89 6c 24 38	 mov	 QWORD PTR $T289[rsp+24], r13
; Line 2656
  00da0	48 8b 7d 88	 mov	 rdi, QWORD PTR str$[rbp-240]
; Line 2144
  00da4	4c 8d 74 24 78	 lea	 r14, QWORD PTR str$[rsp]
; Line 2145
  00da9	48 83 7d 90 10	 cmp	 QWORD PTR str$[rbp-232], 16
  00dae	4c 0f 43 74 24
	78		 cmovae	 r14, QWORD PTR str$[rsp]
; Line 2659
  00db4	48 83 ff 10	 cmp	 rdi, 16
  00db8	73 14		 jae	 SHORT $LN1453@interprete
; Line 328
  00dba	41 0f 10 06	 movups	 xmm0, XMMWORD PTR [r14]
  00dbe	0f 11 44 24 20	 movups	 XMMWORD PTR $T289[rsp], xmm0
; Line 2662
  00dc3	48 c7 44 24 38
	0f 00 00 00	 mov	 QWORD PTR $T289[rsp+24], 15
; Line 2663
  00dcc	eb 7c		 jmp	 SHORT $LN2639@interprete
$LN1453@interprete:
; Line 2667
  00dce	48 8b df	 mov	 rbx, rdi
  00dd1	48 83 cb 0f	 or	 rbx, 15
  00dd5	48 b8 ff ff ff
	ff ff ff ff 7f	 mov	 rax, 9223372036854775807 ; 7fffffffffffffffH
  00ddf	48 3b d8	 cmp	 rbx, rax
  00de2	48 0f 47 d8	 cmova	 rbx, rax
; Line 2668
  00de6	48 8d 4b 01	 lea	 rcx, QWORD PTR [rbx+1]
; File C:\Program Files (x86)\Microsoft Visual Studio\2019\Community\VC\Tools\MSVC\14.27.29110\include\xmemory
; Line 200
  00dea	48 81 f9 00 10
	00 00		 cmp	 rcx, 4096		; 00001000H
  00df1	72 2f		 jb	 SHORT $LN1467@interprete
; Line 115
  00df3	48 8d 41 27	 lea	 rax, QWORD PTR [rcx+39]
; Line 116
  00df7	48 3b c1	 cmp	 rax, rcx
  00dfa	0f 86 68 0f 00
	00		 jbe	 $LN2571@interprete
; Line 77
  00e00	48 8b c8	 mov	 rcx, rax
  00e03	e8 00 00 00 00	 call	 ??2@YAPEAX_K@Z		; operator new
  00e08	48 8b c8	 mov	 rcx, rax
; Line 121
  00e0b	48 85 c0	 test	 rax, rax
  00e0e	0f 84 d2 0c 00
	00		 je	 $LN1476@interprete
; Line 122
  00e14	48 83 c0 27	 add	 rax, 39			; 00000027H
  00e18	48 83 e0 e0	 and	 rax, -32		; ffffffffffffffe0H
; Line 123
  00e1c	48 89 48 f8	 mov	 QWORD PTR [rax-8], rcx
; Line 201
  00e20	eb 0f		 jmp	 SHORT $LN1466@interprete
$LN1467@interprete:
; Line 205
  00e22	48 85 c9	 test	 rcx, rcx
  00e25	74 07		 je	 SHORT $LN1468@interprete
; Line 77
  00e27	e8 00 00 00 00	 call	 ??2@YAPEAX_K@Z		; operator new
; Line 206
  00e2c	eb 03		 jmp	 SHORT $LN1466@interprete
$LN1468@interprete:
; Line 209
  00e2e	49 8b c5	 mov	 rax, r13
$LN1466@interprete:
; File C:\Program Files (x86)\Microsoft Visual Studio\2019\Community\VC\Tools\MSVC\14.27.29110\include\xstring
; Line 2669
  00e31	48 89 44 24 20	 mov	 QWORD PTR $T289[rsp], rax
; Line 2670
  00e36	4c 8d 47 01	 lea	 r8, QWORD PTR [rdi+1]
; Line 328
  00e3a	49 8b d6	 mov	 rdx, r14
  00e3d	48 8b c8	 mov	 rcx, rax
  00e40	e8 00 00 00 00	 call	 memcpy
; Line 2672
  00e45	48 89 5c 24 38	 mov	 QWORD PTR $T289[rsp+24], rbx
$LN2639@interprete:
; File C:\Users\borys\source\repos\calckonsol\interpreter.cpp
; Line 222
  00e4a	48 89 7c 24 30	 mov	 QWORD PTR $T289[rsp+16], rdi
  00e4f	0f b7 d6	 movzx	 edx, si
  00e52	48 8d 4c 24 20	 lea	 rcx, QWORD PTR $T289[rsp]
  00e57	e8 00 00 00 00	 call	 ?petla_przed@@YA_JV?$basic_string@DU?$char_traits@D@std@@V?$allocator@D@2@@std@@FF@Z ; petla_przed
; File C:\Program Files (x86)\Microsoft Visual Studio\2019\Community\VC\Tools\MSVC\14.27.29110\include\xstring
; Line 4293
  00e5c	4c 89 6c 24 30	 mov	 QWORD PTR $T299[rsp+16], r13
; Line 4294
  00e61	48 c7 44 24 38
	0f 00 00 00	 mov	 QWORD PTR $T299[rsp+24], 15
; Line 4296
  00e6a	c6 44 24 20 00	 mov	 BYTE PTR $T299[rsp], 0
; Line 2984
  00e6f	41 b8 0e 00 00
	00		 mov	 r8d, 14
  00e75	48 8d 15 00 00
	00 00		 lea	 rdx, OFFSET FLAT:??_C@_0P@JNFJFHKD@Pozycja?5lewa?$DN?5@
  00e7c	48 8d 4c 24 20	 lea	 rcx, QWORD PTR $T299[rsp]
  00e81	e8 00 00 00 00	 call	 ?assign@?$basic_string@DU?$char_traits@D@std@@V?$allocator@D@2@@std@@QEAAAEAV12@QEBD_K@Z ; std::basic_string<char,std::char_traits<char>,std::allocator<char> >::assign
; File C:\Users\borys\source\repos\calckonsol\interpreter.cpp
; Line 224
  00e86	48 8d 44 24 20	 lea	 rax, QWORD PTR $T299[rsp]
  00e8b	48 89 44 24 40	 mov	 QWORD PTR $T303[rsp], rax
; Line 20
  00e90	83 3d 00 00 00
	00 01		 cmp	 DWORD PTR ?logi@@3HA, 1	; logi
  00e97	75 23		 jne	 SHORT $LN1504@interprete
; File C:\Program Files (x86)\Microsoft Visual Studio\2019\Community\VC\Tools\MSVC\14.27.29110\include\xstring
; Line 2144
  00e99	48 8d 54 24 20	 lea	 rdx, QWORD PTR $T299[rsp]
; Line 2145
  00e9e	48 83 7c 24 38
	10		 cmp	 QWORD PTR $T299[rsp+24], 16
  00ea4	48 0f 43 54 24
	20		 cmovae	 rdx, QWORD PTR $T299[rsp]
; Line 4642
  00eaa	4c 8b 44 24 30	 mov	 r8, QWORD PTR $T299[rsp+16]
  00eaf	48 8b 0d 00 00
	00 00		 mov	 rcx, QWORD PTR __imp_?cout@std@@3V?$basic_ostream@DU?$char_traits@D@std@@@1@A
  00eb6	e8 00 00 00 00	 call	 ??$_Insert_string@DU?$char_traits@D@std@@_K@std@@YAAEAV?$basic_ostream@DU?$char_traits@D@std@@@0@AEAV10@QEBD_K@Z ; std::_Insert_string<char,std::char_traits<char>,unsigned __int64>
  00ebb	90		 npad	 1
$LN1504@interprete:
; Line 4301
  00ebc	48 8b 54 24 38	 mov	 rdx, QWORD PTR $T299[rsp+24]
  00ec1	48 83 fa 10	 cmp	 rdx, 16
  00ec5	72 32		 jb	 SHORT $LN1561@interprete
; Line 4305
  00ec7	48 ff c2	 inc	 rdx
; File C:\Program Files (x86)\Microsoft Visual Studio\2019\Community\VC\Tools\MSVC\14.27.29110\include\xmemory
; Line 803
  00eca	48 8b 4c 24 20	 mov	 rcx, QWORD PTR $T299[rsp]
  00ecf	48 8b c1	 mov	 rax, rcx
; Line 216
  00ed2	48 81 fa 00 10
	00 00		 cmp	 rdx, 4096		; 00001000H
  00ed9	72 19		 jb	 SHORT $LN1571@interprete
; Line 134
  00edb	48 83 c2 27	 add	 rdx, 39			; 00000027H
; Line 137
  00edf	48 8b 49 f8	 mov	 rcx, QWORD PTR [rcx-8]
  00ee3	48 2b c1	 sub	 rax, rcx
; Line 151
  00ee6	48 83 c0 f8	 add	 rax, -8
  00eea	48 83 f8 1f	 cmp	 rax, 31
  00eee	0f 87 f9 0b 00
	00		 ja	 $LN1568@interprete
$LN1571@interprete:
; Line 221
  00ef4	e8 00 00 00 00	 call	 ??3@YAXPEAX_K@Z		; operator delete
$LN1561@interprete:
  00ef9	66 0f 6e fe	 movd	 xmm7, esi
; File C:\Users\borys\source\repos\calckonsol\interpreter.cpp
; Line 225
  00efd	f3 0f e6 ff	 cvtdq2pd xmm7, xmm7
; Line 41
  00f01	83 3d 00 00 00
	00 01		 cmp	 DWORD PTR ?logi@@3HA, 1	; logi
  00f08	75 2e		 jne	 SHORT $LN1581@interprete
; Line 45
  00f0a	48 8d 15 00 00
	00 00		 lea	 rdx, OFFSET FLAT:??_C@_01CLKCMJKC@?5@
  00f11	48 8b 0d 00 00
	00 00		 mov	 rcx, QWORD PTR __imp_?cout@std@@3V?$basic_ostream@DU?$char_traits@D@std@@@1@A
  00f18	e8 00 00 00 00	 call	 ??$?6U?$char_traits@D@std@@@std@@YAAEAV?$basic_ostream@DU?$char_traits@D@std@@@0@AEAV10@PEBD@Z ; std::operator<<<std::char_traits<char> >
  00f1d	48 8b c8	 mov	 rcx, rax
  00f20	0f 28 cf	 movaps	 xmm1, xmm7
  00f23	ff 15 00 00 00
	00		 call	 QWORD PTR __imp_??6?$basic_ostream@DU?$char_traits@D@std@@@std@@QEAAAEAV01@N@Z
  00f29	48 8b c8	 mov	 rcx, rax
  00f2c	48 8d 15 00 00
	00 00		 lea	 rdx, OFFSET FLAT:??_C@_01CLKCMJKC@?5@
  00f33	e8 00 00 00 00	 call	 ??$?6U?$char_traits@D@std@@@std@@YAAEAV?$basic_ostream@DU?$char_traits@D@std@@@0@AEAV10@PEBD@Z ; std::operator<<<std::char_traits<char> >
$LN1581@interprete:
; File C:\Program Files (x86)\Microsoft Visual Studio\2019\Community\VC\Tools\MSVC\14.27.29110\include\xstring
; Line 4293
  00f38	4c 89 6c 24 30	 mov	 QWORD PTR $T318[rsp+16], r13
; Line 4294
  00f3d	48 c7 44 24 38
	0f 00 00 00	 mov	 QWORD PTR $T318[rsp+24], 15
; Line 4296
  00f46	c6 44 24 20 00	 mov	 BYTE PTR $T318[rsp], 0
; Line 2984
  00f4b	41 b8 03 00 00
	00		 mov	 r8d, 3
  00f51	48 8d 15 00 00
	00 00		 lea	 rdx, OFFSET FLAT:??_C@_03MPOOONGK@?$CI?9?$CJ@
  00f58	48 8d 4c 24 20	 lea	 rcx, QWORD PTR $T318[rsp]
  00f5d	e8 00 00 00 00	 call	 ?assign@?$basic_string@DU?$char_traits@D@std@@V?$allocator@D@2@@std@@QEAAAEAV12@QEBD_K@Z ; std::basic_string<char,std::char_traits<char>,std::allocator<char> >::assign
; File C:\Users\borys\source\repos\calckonsol\interpreter.cpp
; Line 225
  00f62	48 8d 44 24 20	 lea	 rax, QWORD PTR $T318[rsp]
  00f67	48 89 44 24 40	 mov	 QWORD PTR $T322[rsp], rax
; Line 20
  00f6c	83 3d 00 00 00
	00 01		 cmp	 DWORD PTR ?logi@@3HA, 1	; logi
  00f73	75 23		 jne	 SHORT $LN1596@interprete
; File C:\Program Files (x86)\Microsoft Visual Studio\2019\Community\VC\Tools\MSVC\14.27.29110\include\xstring
; Line 2144
  00f75	48 8d 54 24 20	 lea	 rdx, QWORD PTR $T318[rsp]
; Line 2145
  00f7a	48 83 7c 24 38
	10		 cmp	 QWORD PTR $T318[rsp+24], 16
  00f80	48 0f 43 54 24
	20		 cmovae	 rdx, QWORD PTR $T318[rsp]
; Line 4642
  00f86	4c 8b 44 24 30	 mov	 r8, QWORD PTR $T318[rsp+16]
  00f8b	48 8b 0d 00 00
	00 00		 mov	 rcx, QWORD PTR __imp_?cout@std@@3V?$basic_ostream@DU?$char_traits@D@std@@@1@A
  00f92	e8 00 00 00 00	 call	 ??$_Insert_string@DU?$char_traits@D@std@@_K@std@@YAAEAV?$basic_ostream@DU?$char_traits@D@std@@@0@AEAV10@QEBD_K@Z ; std::_Insert_string<char,std::char_traits<char>,unsigned __int64>
  00f97	90		 npad	 1
$LN1596@interprete:
; Line 4301
  00f98	48 8b 54 24 38	 mov	 rdx, QWORD PTR $T318[rsp+24]
  00f9d	48 83 fa 10	 cmp	 rdx, 16
  00fa1	72 32		 jb	 SHORT $LN1653@interprete
; Line 4305
  00fa3	48 ff c2	 inc	 rdx
; File C:\Program Files (x86)\Microsoft Visual Studio\2019\Community\VC\Tools\MSVC\14.27.29110\include\xmemory
; Line 803
  00fa6	48 8b 4c 24 20	 mov	 rcx, QWORD PTR $T318[rsp]
  00fab	48 8b c1	 mov	 rax, rcx
; Line 216
  00fae	48 81 fa 00 10
	00 00		 cmp	 rdx, 4096		; 00001000H
  00fb5	72 19		 jb	 SHORT $LN1663@interprete
; Line 134
  00fb7	48 83 c2 27	 add	 rdx, 39			; 00000027H
; Line 137
  00fbb	48 8b 49 f8	 mov	 rcx, QWORD PTR [rcx-8]
  00fbf	48 2b c1	 sub	 rax, rcx
; Line 151
  00fc2	48 83 c0 f8	 add	 rax, -8
  00fc6	48 83 f8 1f	 cmp	 rax, 31
  00fca	0f 87 24 0b 00
	00		 ja	 $LN1660@interprete
$LN1663@interprete:
; Line 221
  00fd0	e8 00 00 00 00	 call	 ??3@YAXPEAX_K@Z		; operator delete
$LN1653@interprete:
; File C:\Users\borys\source\repos\calckonsol\interpreter.cpp
; Line 225
  00fd5	0f bf 05 00 00
	00 00		 movsx	 eax, WORD PTR ?min_przed@@3FA ; min_przed
  00fdc	66 0f 6e f0	 movd	 xmm6, eax
  00fe0	f3 0f e6 f6	 cvtdq2pd xmm6, xmm6
; Line 41
  00fe4	83 3d 00 00 00
	00 01		 cmp	 DWORD PTR ?logi@@3HA, 1	; logi
  00feb	75 2e		 jne	 SHORT $LN1673@interprete
; Line 45
  00fed	48 8d 15 00 00
	00 00		 lea	 rdx, OFFSET FLAT:??_C@_01CLKCMJKC@?5@
  00ff4	48 8b 0d 00 00
	00 00		 mov	 rcx, QWORD PTR __imp_?cout@std@@3V?$basic_ostream@DU?$char_traits@D@std@@@1@A
  00ffb	e8 00 00 00 00	 call	 ??$?6U?$char_traits@D@std@@@std@@YAAEAV?$basic_ostream@DU?$char_traits@D@std@@@0@AEAV10@PEBD@Z ; std::operator<<<std::char_traits<char> >
  01000	48 8b c8	 mov	 rcx, rax
  01003	0f 28 ce	 movaps	 xmm1, xmm6
  01006	ff 15 00 00 00
	00		 call	 QWORD PTR __imp_??6?$basic_ostream@DU?$char_traits@D@std@@@std@@QEAAAEAV01@N@Z
  0100c	48 8b c8	 mov	 rcx, rax
  0100f	48 8d 15 00 00
	00 00		 lea	 rdx, OFFSET FLAT:??_C@_01CLKCMJKC@?5@
  01016	e8 00 00 00 00	 call	 ??$?6U?$char_traits@D@std@@@std@@YAAEAV?$basic_ostream@DU?$char_traits@D@std@@@0@AEAV10@PEBD@Z ; std::operator<<<std::char_traits<char> >
$LN1673@interprete:
; File C:\Program Files (x86)\Microsoft Visual Studio\2019\Community\VC\Tools\MSVC\14.27.29110\include\xstring
; Line 4293
  0101b	4c 89 6c 24 30	 mov	 QWORD PTR $T337[rsp+16], r13
; Line 4294
  01020	48 c7 44 24 38
	0f 00 00 00	 mov	 QWORD PTR $T337[rsp+24], 15
; Line 4296
  01029	c6 44 24 20 00	 mov	 BYTE PTR $T337[rsp], 0
; Line 2984
  0102e	41 b8 01 00 00
	00		 mov	 r8d, 1
  01034	48 8d 15 00 00
	00 00		 lea	 rdx, OFFSET FLAT:??_C@_01NEMOKFLO@?$DN@
  0103b	48 8d 4c 24 20	 lea	 rcx, QWORD PTR $T337[rsp]
  01040	e8 00 00 00 00	 call	 ?assign@?$basic_string@DU?$char_traits@D@std@@V?$allocator@D@2@@std@@QEAAAEAV12@QEBD_K@Z ; std::basic_string<char,std::char_traits<char>,std::allocator<char> >::assign
; File C:\Users\borys\source\repos\calckonsol\interpreter.cpp
; Line 225
  01045	48 8d 44 24 20	 lea	 rax, QWORD PTR $T337[rsp]
  0104a	48 89 44 24 40	 mov	 QWORD PTR $T341[rsp], rax
; Line 20
  0104f	83 3d 00 00 00
	00 01		 cmp	 DWORD PTR ?logi@@3HA, 1	; logi
  01056	75 23		 jne	 SHORT $LN1688@interprete
; File C:\Program Files (x86)\Microsoft Visual Studio\2019\Community\VC\Tools\MSVC\14.27.29110\include\xstring
; Line 2144
  01058	48 8d 54 24 20	 lea	 rdx, QWORD PTR $T337[rsp]
; Line 2145
  0105d	48 83 7c 24 38
	10		 cmp	 QWORD PTR $T337[rsp+24], 16
  01063	48 0f 43 54 24
	20		 cmovae	 rdx, QWORD PTR $T337[rsp]
; Line 4642
  01069	4c 8b 44 24 30	 mov	 r8, QWORD PTR $T337[rsp+16]
  0106e	48 8b 0d 00 00
	00 00		 mov	 rcx, QWORD PTR __imp_?cout@std@@3V?$basic_ostream@DU?$char_traits@D@std@@@1@A
  01075	e8 00 00 00 00	 call	 ??$_Insert_string@DU?$char_traits@D@std@@_K@std@@YAAEAV?$basic_ostream@DU?$char_traits@D@std@@@0@AEAV10@QEBD_K@Z ; std::_Insert_string<char,std::char_traits<char>,unsigned __int64>
  0107a	90		 npad	 1
$LN1688@interprete:
; Line 4301
  0107b	48 8b 54 24 38	 mov	 rdx, QWORD PTR $T337[rsp+24]
  01080	48 83 fa 10	 cmp	 rdx, 16
  01084	72 32		 jb	 SHORT $LN1745@interprete
; Line 4305
  01086	48 ff c2	 inc	 rdx
; File C:\Program Files (x86)\Microsoft Visual Studio\2019\Community\VC\Tools\MSVC\14.27.29110\include\xmemory
; Line 803
  01089	48 8b 4c 24 20	 mov	 rcx, QWORD PTR $T337[rsp]
  0108e	48 8b c1	 mov	 rax, rcx
; Line 216
  01091	48 81 fa 00 10
	00 00		 cmp	 rdx, 4096		; 00001000H
  01098	72 19		 jb	 SHORT $LN1755@interprete
; Line 134
  0109a	48 83 c2 27	 add	 rdx, 39			; 00000027H
; Line 137
  0109e	48 8b 49 f8	 mov	 rcx, QWORD PTR [rcx-8]
  010a2	48 2b c1	 sub	 rax, rcx
; Line 151
  010a5	48 83 c0 f8	 add	 rax, -8
  010a9	48 83 f8 1f	 cmp	 rax, 31
  010ad	0f 87 48 0a 00
	00		 ja	 $LN1752@interprete
$LN1755@interprete:
; Line 221
  010b3	e8 00 00 00 00	 call	 ??3@YAXPEAX_K@Z		; operator delete
$LN1745@interprete:
; File C:\Users\borys\source\repos\calckonsol\interpreter.cpp
; Line 225
  010b8	0f bf 15 00 00
	00 00		 movsx	 edx, WORD PTR ?min_przed@@3FA ; min_przed
  010bf	8b ce		 mov	 ecx, esi
  010c1	2b ca		 sub	 ecx, edx
  010c3	66 0f 6e f1	 movd	 xmm6, ecx
  010c7	f3 0f e6 f6	 cvtdq2pd xmm6, xmm6
; Line 41
  010cb	83 3d 00 00 00
	00 01		 cmp	 DWORD PTR ?logi@@3HA, 1	; logi
  010d2	75 35		 jne	 SHORT $LN1765@interprete
; Line 45
  010d4	48 8d 15 00 00
	00 00		 lea	 rdx, OFFSET FLAT:??_C@_01CLKCMJKC@?5@
  010db	48 8b 0d 00 00
	00 00		 mov	 rcx, QWORD PTR __imp_?cout@std@@3V?$basic_ostream@DU?$char_traits@D@std@@@1@A
  010e2	e8 00 00 00 00	 call	 ??$?6U?$char_traits@D@std@@@std@@YAAEAV?$basic_ostream@DU?$char_traits@D@std@@@0@AEAV10@PEBD@Z ; std::operator<<<std::char_traits<char> >
  010e7	48 8b c8	 mov	 rcx, rax
  010ea	0f 28 ce	 movaps	 xmm1, xmm6
  010ed	ff 15 00 00 00
	00		 call	 QWORD PTR __imp_??6?$basic_ostream@DU?$char_traits@D@std@@@std@@QEAAAEAV01@N@Z
  010f3	48 8b c8	 mov	 rcx, rax
  010f6	48 8d 15 00 00
	00 00		 lea	 rdx, OFFSET FLAT:??_C@_01CLKCMJKC@?5@
  010fd	e8 00 00 00 00	 call	 ??$?6U?$char_traits@D@std@@@std@@YAAEAV?$basic_ostream@DU?$char_traits@D@std@@@0@AEAV10@PEBD@Z ; std::operator<<<std::char_traits<char> >
  01102	0f b7 15 00 00
	00 00		 movzx	 edx, WORD PTR ?min_przed@@3FA ; min_przed
$LN1765@interprete:
; Line 226
  01109	0f bf ca	 movsx	 ecx, dx
  0110c	8b c6		 mov	 eax, esi
  0110e	2b c1		 sub	 eax, ecx
  01110	ff c8		 dec	 eax
  01112	4c 63 c0	 movsxd	 r8, eax
  01115	8d 41 01	 lea	 eax, DWORD PTR [rcx+1]
  01118	48 63 c8	 movsxd	 rcx, eax
; File C:\Program Files (x86)\Microsoft Visual Studio\2019\Community\VC\Tools\MSVC\14.27.29110\include\xstring
; Line 4293
  0111b	4c 89 6c 24 30	 mov	 QWORD PTR $T356[rsp+16], r13
; Line 4294
  01120	48 c7 44 24 38
	0f 00 00 00	 mov	 QWORD PTR $T356[rsp+24], 15
; Line 4296
  01129	c6 44 24 20 00	 mov	 BYTE PTR $T356[rsp], 0
; Line 2157
  0112e	48 8b 45 88	 mov	 rax, QWORD PTR str$[rbp-240]
  01132	48 3b c1	 cmp	 rax, rcx
  01135	0f 82 1b 0c 00
	00		 jb	 $LN2572@interprete
; Line 2174
  0113b	48 2b c1	 sub	 rax, rcx
  0113e	49 3b c0	 cmp	 rax, r8
  01141	4c 0f 42 c0	 cmovb	 r8, rax
; Line 2144
  01145	48 8d 54 24 78	 lea	 rdx, QWORD PTR str$[rsp]
; Line 2145
  0114a	48 83 7d 90 10	 cmp	 QWORD PTR str$[rbp-232], 16
  0114f	48 0f 43 54 24
	78		 cmovae	 rdx, QWORD PTR str$[rsp]
; Line 2946
  01155	48 03 d1	 add	 rdx, rcx
  01158	48 8d 4c 24 20	 lea	 rcx, QWORD PTR $T356[rsp]
  0115d	e8 00 00 00 00	 call	 ?assign@?$basic_string@DU?$char_traits@D@std@@V?$allocator@D@2@@std@@QEAAAEAV12@QEBD_K@Z ; std::basic_string<char,std::char_traits<char>,std::allocator<char> >::assign
; Line 4087
  01162	41 83 cf 01	 or	 r15d, 1
; Line 4301
  01166	48 8b 54 24 70	 mov	 rdx, QWORD PTR war_lewa$541[rsp+24]
  0116b	48 83 fa 10	 cmp	 rdx, 16
  0116f	72 32		 jb	 SHORT $LN1810@interprete
; Line 4305
  01171	48 ff c2	 inc	 rdx
; File C:\Program Files (x86)\Microsoft Visual Studio\2019\Community\VC\Tools\MSVC\14.27.29110\include\xmemory
; Line 803
  01174	48 8b 4c 24 58	 mov	 rcx, QWORD PTR war_lewa$541[rsp]
  01179	48 8b c1	 mov	 rax, rcx
; Line 216
  0117c	48 81 fa 00 10
	00 00		 cmp	 rdx, 4096		; 00001000H
  01183	72 19		 jb	 SHORT $LN1820@interprete
; Line 134
  01185	48 83 c2 27	 add	 rdx, 39			; 00000027H
; Line 137
  01189	48 8b 49 f8	 mov	 rcx, QWORD PTR [rcx-8]
  0118d	48 2b c1	 sub	 rax, rcx
; Line 151
  01190	48 83 c0 f8	 add	 rax, -8
  01194	48 83 f8 1f	 cmp	 rax, 31
  01198	0f 87 64 09 00
	00		 ja	 $LN1817@interprete
$LN1820@interprete:
; Line 221
  0119e	e8 00 00 00 00	 call	 ??3@YAXPEAX_K@Z		; operator delete
$LN1810@interprete:
; File C:\Program Files (x86)\Microsoft Visual Studio\2019\Community\VC\Tools\MSVC\14.27.29110\include\xstring
; Line 2606
  011a3	0f 10 44 24 20	 movups	 xmm0, XMMWORD PTR $T356[rsp]
  011a8	0f 11 44 24 58	 movups	 XMMWORD PTR war_lewa$541[rsp], xmm0
  011ad	0f 10 4c 24 30	 movups	 xmm1, XMMWORD PTR $T356[rsp+16]
  011b2	0f 11 4c 24 68	 movups	 XMMWORD PTR war_lewa$541[rsp+16], xmm1
; Line 4293
  011b7	4c 89 6c 24 30	 mov	 QWORD PTR $T372[rsp+16], r13
; Line 4294
  011bc	48 c7 44 24 38
	0f 00 00 00	 mov	 QWORD PTR $T372[rsp+24], 15
; Line 4296
  011c5	c6 44 24 20 00	 mov	 BYTE PTR $T372[rsp], 0
; Line 2984
  011ca	41 b8 0e 00 00
	00		 mov	 r8d, 14
  011d0	48 8d 15 00 00
	00 00		 lea	 rdx, OFFSET FLAT:??_C@_0P@PGDIMPNJ@Wartosc?5lewa?$DN?5@
  011d7	48 8d 4c 24 20	 lea	 rcx, QWORD PTR $T372[rsp]
  011dc	e8 00 00 00 00	 call	 ?assign@?$basic_string@DU?$char_traits@D@std@@V?$allocator@D@2@@std@@QEAAAEAV12@QEBD_K@Z ; std::basic_string<char,std::char_traits<char>,std::allocator<char> >::assign
; File C:\Users\borys\source\repos\calckonsol\interpreter.cpp
; Line 227
  011e1	48 8d 44 24 20	 lea	 rax, QWORD PTR $T372[rsp]
  011e6	48 89 44 24 40	 mov	 QWORD PTR $T376[rsp], rax
; Line 20
  011eb	83 3d 00 00 00
	00 01		 cmp	 DWORD PTR ?logi@@3HA, 1	; logi
  011f2	75 23		 jne	 SHORT $LN1872@interprete
; File C:\Program Files (x86)\Microsoft Visual Studio\2019\Community\VC\Tools\MSVC\14.27.29110\include\xstring
; Line 2144
  011f4	48 8d 54 24 20	 lea	 rdx, QWORD PTR $T372[rsp]
; Line 2145
  011f9	48 83 7c 24 38
	10		 cmp	 QWORD PTR $T372[rsp+24], 16
  011ff	48 0f 43 54 24
	20		 cmovae	 rdx, QWORD PTR $T372[rsp]
; Line 4642
  01205	4c 8b 44 24 30	 mov	 r8, QWORD PTR $T372[rsp+16]
  0120a	48 8b 0d 00 00
	00 00		 mov	 rcx, QWORD PTR __imp_?cout@std@@3V?$basic_ostream@DU?$char_traits@D@std@@@1@A
  01211	e8 00 00 00 00	 call	 ??$_Insert_string@DU?$char_traits@D@std@@_K@std@@YAAEAV?$basic_ostream@DU?$char_traits@D@std@@@0@AEAV10@QEBD_K@Z ; std::_Insert_string<char,std::char_traits<char>,unsigned __int64>
  01216	90		 npad	 1
$LN1872@interprete:
; Line 4301
  01217	48 8b 54 24 38	 mov	 rdx, QWORD PTR $T372[rsp+24]
  0121c	48 83 fa 10	 cmp	 rdx, 16
  01220	72 32		 jb	 SHORT $LN1929@interprete
; Line 4305
  01222	48 ff c2	 inc	 rdx
; File C:\Program Files (x86)\Microsoft Visual Studio\2019\Community\VC\Tools\MSVC\14.27.29110\include\xmemory
; Line 803
  01225	48 8b 4c 24 20	 mov	 rcx, QWORD PTR $T372[rsp]
  0122a	48 8b c1	 mov	 rax, rcx
; Line 216
  0122d	48 81 fa 00 10
	00 00		 cmp	 rdx, 4096		; 00001000H
  01234	72 19		 jb	 SHORT $LN1939@interprete
; Line 134
  01236	48 83 c2 27	 add	 rdx, 39			; 00000027H
; Line 137
  0123a	48 8b 49 f8	 mov	 rcx, QWORD PTR [rcx-8]
  0123e	48 2b c1	 sub	 rax, rcx
; Line 151
  01241	48 83 c0 f8	 add	 rax, -8
  01245	48 83 f8 1f	 cmp	 rax, 31
  01249	0f 87 ba 08 00
	00		 ja	 $LN1936@interprete
$LN1939@interprete:
; Line 221
  0124f	e8 00 00 00 00	 call	 ??3@YAXPEAX_K@Z		; operator delete
$LN1929@interprete:
; File C:\Program Files (x86)\Microsoft Visual Studio\2019\Community\VC\Tools\MSVC\14.27.29110\include\xstring
; Line 2124
  01254	4c 89 6c 24 30	 mov	 QWORD PTR $T391[rsp+16], r13
  01259	4c 89 6c 24 38	 mov	 QWORD PTR $T391[rsp+24], r13
; Line 2656
  0125e	48 8b 7c 24 68	 mov	 rdi, QWORD PTR war_lewa$541[rsp+16]
; Line 2144
  01263	4c 8d 74 24 58	 lea	 r14, QWORD PTR war_lewa$541[rsp]
; Line 2145
  01268	48 83 7c 24 70
	10		 cmp	 QWORD PTR war_lewa$541[rsp+24], 16
  0126e	4c 0f 43 74 24
	58		 cmovae	 r14, QWORD PTR war_lewa$541[rsp]
; Line 2659
  01274	48 83 ff 10	 cmp	 rdi, 16
  01278	73 10		 jae	 SHORT $LN1952@interprete
; Line 328
  0127a	41 0f 10 06	 movups	 xmm0, XMMWORD PTR [r14]
  0127e	0f 11 44 24 20	 movups	 XMMWORD PTR $T391[rsp], xmm0
; Line 2662
  01283	bb 0f 00 00 00	 mov	 ebx, 15
; Line 2663
  01288	eb 77		 jmp	 SHORT $LN2640@interprete
$LN1952@interprete:
; Line 2667
  0128a	48 8b df	 mov	 rbx, rdi
  0128d	48 83 cb 0f	 or	 rbx, 15
  01291	48 b8 ff ff ff
	ff ff ff ff 7f	 mov	 rax, 9223372036854775807 ; 7fffffffffffffffH
  0129b	48 3b d8	 cmp	 rbx, rax
  0129e	48 0f 47 d8	 cmova	 rbx, rax
; Line 2668
  012a2	48 8d 4b 01	 lea	 rcx, QWORD PTR [rbx+1]
; File C:\Program Files (x86)\Microsoft Visual Studio\2019\Community\VC\Tools\MSVC\14.27.29110\include\xmemory
; Line 200
  012a6	48 81 f9 00 10
	00 00		 cmp	 rcx, 4096		; 00001000H
  012ad	72 2f		 jb	 SHORT $LN1966@interprete
; Line 115
  012af	48 8d 41 27	 lea	 rax, QWORD PTR [rcx+39]
; Line 116
  012b3	48 3b c1	 cmp	 rax, rcx
  012b6	0f 86 b2 0a 00
	00		 jbe	 $LN2573@interprete
; Line 77
  012bc	48 8b c8	 mov	 rcx, rax
  012bf	e8 00 00 00 00	 call	 ??2@YAPEAX_K@Z		; operator new
  012c4	48 8b c8	 mov	 rcx, rax
; Line 121
  012c7	48 85 c0	 test	 rax, rax
  012ca	0f 84 40 08 00
	00		 je	 $LN2055@interprete
; Line 122
  012d0	48 83 c0 27	 add	 rax, 39			; 00000027H
  012d4	48 83 e0 e0	 and	 rax, -32		; ffffffffffffffe0H
; Line 123
  012d8	48 89 48 f8	 mov	 QWORD PTR [rax-8], rcx
; Line 201
  012dc	eb 0f		 jmp	 SHORT $LN1965@interprete
$LN1966@interprete:
; Line 205
  012de	48 85 c9	 test	 rcx, rcx
  012e1	74 07		 je	 SHORT $LN1967@interprete
; Line 77
  012e3	e8 00 00 00 00	 call	 ??2@YAPEAX_K@Z		; operator new
; Line 206
  012e8	eb 03		 jmp	 SHORT $LN1965@interprete
$LN1967@interprete:
; Line 209
  012ea	49 8b c5	 mov	 rax, r13
$LN1965@interprete:
; File C:\Program Files (x86)\Microsoft Visual Studio\2019\Community\VC\Tools\MSVC\14.27.29110\include\xstring
; Line 2669
  012ed	48 89 44 24 20	 mov	 QWORD PTR $T391[rsp], rax
; Line 2670
  012f2	4c 8d 47 01	 lea	 r8, QWORD PTR [rdi+1]
; Line 328
  012f6	49 8b d6	 mov	 rdx, r14
  012f9	48 8b c8	 mov	 rcx, rax
  012fc	e8 00 00 00 00	 call	 memcpy
$LN2640@interprete:
; File C:\Users\borys\source\repos\calckonsol\interpreter.cpp
; Line 228
  01301	48 89 5c 24 38	 mov	 QWORD PTR $T391[rsp+24], rbx
  01306	48 89 7c 24 30	 mov	 QWORD PTR $T391[rsp+16], rdi
  0130b	48 8d 44 24 20	 lea	 rax, QWORD PTR $T391[rsp]
  01310	48 89 44 24 40	 mov	 QWORD PTR $T401[rsp], rax
; Line 24
  01315	83 3d 00 00 00
	00 01		 cmp	 DWORD PTR ?logi@@3HA, 1	; logi
  0131c	75 33		 jne	 SHORT $LN1993@interprete
; File C:\Program Files (x86)\Microsoft Visual Studio\2019\Community\VC\Tools\MSVC\14.27.29110\include\xstring
; Line 2144
  0131e	48 8d 54 24 20	 lea	 rdx, QWORD PTR $T391[rsp]
; Line 2145
  01323	48 83 fb 10	 cmp	 rbx, 16
  01327	48 0f 43 54 24
	20		 cmovae	 rdx, QWORD PTR $T391[rsp]
; Line 4642
  0132d	4c 8b c7	 mov	 r8, rdi
  01330	48 8b 0d 00 00
	00 00		 mov	 rcx, QWORD PTR __imp_?cout@std@@3V?$basic_ostream@DU?$char_traits@D@std@@@1@A
  01337	e8 00 00 00 00	 call	 ??$_Insert_string@DU?$char_traits@D@std@@_K@std@@YAAEAV?$basic_ostream@DU?$char_traits@D@std@@@0@AEAV10@QEBD_K@Z ; std::_Insert_string<char,std::char_traits<char>,unsigned __int64>
  0133c	48 8b c8	 mov	 rcx, rax
; File C:\Users\borys\source\repos\calckonsol\interpreter.cpp
; Line 26
  0133f	48 8d 15 00 00
	00 00		 lea	 rdx, OFFSET FLAT:??$endl@DU?$char_traits@D@std@@@std@@YAAEAV?$basic_ostream@DU?$char_traits@D@std@@@0@AEAV10@@Z ; std::endl<char,std::char_traits<char> >
  01346	ff 15 00 00 00
	00		 call	 QWORD PTR __imp_??6?$basic_ostream@DU?$char_traits@D@std@@@std@@QEAAAEAV01@P6AAEAV01@AEAV01@@Z@Z
  0134c	48 8b 5c 24 38	 mov	 rbx, QWORD PTR $T391[rsp+24]
$LN1993@interprete:
; File C:\Program Files (x86)\Microsoft Visual Studio\2019\Community\VC\Tools\MSVC\14.27.29110\include\xstring
; Line 4301
  01351	48 83 fb 10	 cmp	 rbx, 16
  01355	72 33		 jb	 SHORT $LN2048@interprete
; Line 4305
  01357	48 8d 53 01	 lea	 rdx, QWORD PTR [rbx+1]
; File C:\Program Files (x86)\Microsoft Visual Studio\2019\Community\VC\Tools\MSVC\14.27.29110\include\xmemory
; Line 803
  0135b	48 8b 4c 24 20	 mov	 rcx, QWORD PTR $T391[rsp]
  01360	48 8b c1	 mov	 rax, rcx
; Line 216
  01363	48 81 fa 00 10
	00 00		 cmp	 rdx, 4096		; 00001000H
  0136a	72 19		 jb	 SHORT $LN2058@interprete
; Line 134
  0136c	48 83 c2 27	 add	 rdx, 39			; 00000027H
; Line 137
  01370	48 8b 49 f8	 mov	 rcx, QWORD PTR [rcx-8]
  01374	48 2b c1	 sub	 rax, rcx
; Line 151
  01377	48 83 c0 f8	 add	 rax, -8
  0137b	48 83 f8 1f	 cmp	 rax, 31
  0137f	0f 87 8b 07 00
	00		 ja	 $LN2055@interprete
$LN2058@interprete:
; Line 221
  01385	e8 00 00 00 00	 call	 ??3@YAXPEAX_K@Z		; operator delete
$LN2048@interprete:
; File C:\Program Files (x86)\Microsoft Visual Studio\2019\Community\VC\Tools\MSVC\14.27.29110\include\xstring
; Line 4293
  0138a	4c 89 6c 24 30	 mov	 QWORD PTR $T416[rsp+16], r13
; Line 4294
  0138f	48 c7 44 24 38
	0f 00 00 00	 mov	 QWORD PTR $T416[rsp+24], 15
; Line 4296
  01398	c6 44 24 20 00	 mov	 BYTE PTR $T416[rsp], 0
; Line 2984
  0139d	41 b8 0f 00 00
	00		 mov	 r8d, 15
  013a3	48 8d 15 00 00
	00 00		 lea	 rdx, OFFSET FLAT:??_C@_0BA@PMKBAKBO@Pozycja?5prawa?$DN?5@
  013aa	48 8d 4c 24 20	 lea	 rcx, QWORD PTR $T416[rsp]
  013af	e8 00 00 00 00	 call	 ?assign@?$basic_string@DU?$char_traits@D@std@@V?$allocator@D@2@@std@@QEAAAEAV12@QEBD_K@Z ; std::basic_string<char,std::char_traits<char>,std::allocator<char> >::assign
; File C:\Users\borys\source\repos\calckonsol\interpreter.cpp
; Line 231
  013b4	48 8d 44 24 20	 lea	 rax, QWORD PTR $T416[rsp]
  013b9	48 89 44 24 40	 mov	 QWORD PTR $T420[rsp], rax
; Line 20
  013be	83 3d 00 00 00
	00 01		 cmp	 DWORD PTR ?logi@@3HA, 1	; logi
  013c5	75 23		 jne	 SHORT $LN2077@interprete
; File C:\Program Files (x86)\Microsoft Visual Studio\2019\Community\VC\Tools\MSVC\14.27.29110\include\xstring
; Line 2144
  013c7	48 8d 54 24 20	 lea	 rdx, QWORD PTR $T416[rsp]
; Line 2145
  013cc	48 83 7c 24 38
	10		 cmp	 QWORD PTR $T416[rsp+24], 16
  013d2	48 0f 43 54 24
	20		 cmovae	 rdx, QWORD PTR $T416[rsp]
; Line 4642
  013d8	4c 8b 44 24 30	 mov	 r8, QWORD PTR $T416[rsp+16]
  013dd	48 8b 0d 00 00
	00 00		 mov	 rcx, QWORD PTR __imp_?cout@std@@3V?$basic_ostream@DU?$char_traits@D@std@@@1@A
  013e4	e8 00 00 00 00	 call	 ??$_Insert_string@DU?$char_traits@D@std@@_K@std@@YAAEAV?$basic_ostream@DU?$char_traits@D@std@@@0@AEAV10@QEBD_K@Z ; std::_Insert_string<char,std::char_traits<char>,unsigned __int64>
  013e9	90		 npad	 1
$LN2077@interprete:
; Line 4301
  013ea	48 8b 54 24 38	 mov	 rdx, QWORD PTR $T416[rsp+24]
  013ef	48 83 fa 10	 cmp	 rdx, 16
  013f3	72 32		 jb	 SHORT $LN2134@interprete
; Line 4305
  013f5	48 ff c2	 inc	 rdx
; File C:\Program Files (x86)\Microsoft Visual Studio\2019\Community\VC\Tools\MSVC\14.27.29110\include\xmemory
; Line 803
  013f8	48 8b 4c 24 20	 mov	 rcx, QWORD PTR $T416[rsp]
  013fd	48 8b c1	 mov	 rax, rcx
; Line 216
  01400	48 81 fa 00 10
	00 00		 cmp	 rdx, 4096		; 00001000H
  01407	72 19		 jb	 SHORT $LN2144@interprete
; Line 134
  01409	48 83 c2 27	 add	 rdx, 39			; 00000027H
; Line 137
  0140d	48 8b 49 f8	 mov	 rcx, QWORD PTR [rcx-8]
  01411	48 2b c1	 sub	 rax, rcx
; Line 151
  01414	48 83 c0 f8	 add	 rax, -8
  01418	48 83 f8 1f	 cmp	 rax, 31
  0141c	0f 87 f5 06 00
	00		 ja	 $LN2141@interprete
$LN2144@interprete:
; Line 221
  01422	e8 00 00 00 00	 call	 ??3@YAXPEAX_K@Z		; operator delete
$LN2134@interprete:
; File C:\Users\borys\source\repos\calckonsol\interpreter.cpp
; Line 232
  01427	0f bf 05 00 00
	00 00		 movsx	 eax, WORD PTR ?min_za@@3FA ; min_za
  0142e	66 0f 6e f0	 movd	 xmm6, eax
  01432	f3 0f e6 f6	 cvtdq2pd xmm6, xmm6
; Line 41
  01436	83 3d 00 00 00
	00 01		 cmp	 DWORD PTR ?logi@@3HA, 1	; logi
  0143d	75 2e		 jne	 SHORT $LN2154@interprete
; Line 45
  0143f	48 8d 15 00 00
	00 00		 lea	 rdx, OFFSET FLAT:??_C@_01CLKCMJKC@?5@
  01446	48 8b 0d 00 00
	00 00		 mov	 rcx, QWORD PTR __imp_?cout@std@@3V?$basic_ostream@DU?$char_traits@D@std@@@1@A
  0144d	e8 00 00 00 00	 call	 ??$?6U?$char_traits@D@std@@@std@@YAAEAV?$basic_ostream@DU?$char_traits@D@std@@@0@AEAV10@PEBD@Z ; std::operator<<<std::char_traits<char> >
  01452	48 8b c8	 mov	 rcx, rax
  01455	0f 28 ce	 movaps	 xmm1, xmm6
  01458	ff 15 00 00 00
	00		 call	 QWORD PTR __imp_??6?$basic_ostream@DU?$char_traits@D@std@@@std@@QEAAAEAV01@N@Z
  0145e	48 8b c8	 mov	 rcx, rax
  01461	48 8d 15 00 00
	00 00		 lea	 rdx, OFFSET FLAT:??_C@_01CLKCMJKC@?5@
  01468	e8 00 00 00 00	 call	 ??$?6U?$char_traits@D@std@@@std@@YAAEAV?$basic_ostream@DU?$char_traits@D@std@@@0@AEAV10@PEBD@Z ; std::operator<<<std::char_traits<char> >
$LN2154@interprete:
; File C:\Program Files (x86)\Microsoft Visual Studio\2019\Community\VC\Tools\MSVC\14.27.29110\include\xstring
; Line 4293
  0146d	4c 89 6c 24 30	 mov	 QWORD PTR $T435[rsp+16], r13
; Line 4294
  01472	48 c7 44 24 38
	0f 00 00 00	 mov	 QWORD PTR $T435[rsp+24], 15
; Line 4296
  0147b	c6 44 24 20 00	 mov	 BYTE PTR $T435[rsp], 0
; Line 2984
  01480	41 b8 03 00 00
	00		 mov	 r8d, 3
  01486	48 8d 15 00 00
	00 00		 lea	 rdx, OFFSET FLAT:??_C@_03MPOOONGK@?$CI?9?$CJ@
  0148d	48 8d 4c 24 20	 lea	 rcx, QWORD PTR $T435[rsp]
  01492	e8 00 00 00 00	 call	 ?assign@?$basic_string@DU?$char_traits@D@std@@V?$allocator@D@2@@std@@QEAAAEAV12@QEBD_K@Z ; std::basic_string<char,std::char_traits<char>,std::allocator<char> >::assign
; File C:\Users\borys\source\repos\calckonsol\interpreter.cpp
; Line 232
  01497	48 8d 44 24 20	 lea	 rax, QWORD PTR $T435[rsp]
  0149c	48 89 44 24 40	 mov	 QWORD PTR $T439[rsp], rax
; Line 20
  014a1	83 3d 00 00 00
	00 01		 cmp	 DWORD PTR ?logi@@3HA, 1	; logi
  014a8	75 23		 jne	 SHORT $LN2169@interprete
; File C:\Program Files (x86)\Microsoft Visual Studio\2019\Community\VC\Tools\MSVC\14.27.29110\include\xstring
; Line 2144
  014aa	48 8d 54 24 20	 lea	 rdx, QWORD PTR $T435[rsp]
; Line 2145
  014af	48 83 7c 24 38
	10		 cmp	 QWORD PTR $T435[rsp+24], 16
  014b5	48 0f 43 54 24
	20		 cmovae	 rdx, QWORD PTR $T435[rsp]
; Line 4642
  014bb	4c 8b 44 24 30	 mov	 r8, QWORD PTR $T435[rsp+16]
  014c0	48 8b 0d 00 00
	00 00		 mov	 rcx, QWORD PTR __imp_?cout@std@@3V?$basic_ostream@DU?$char_traits@D@std@@@1@A
  014c7	e8 00 00 00 00	 call	 ??$_Insert_string@DU?$char_traits@D@std@@_K@std@@YAAEAV?$basic_ostream@DU?$char_traits@D@std@@@0@AEAV10@QEBD_K@Z ; std::_Insert_string<char,std::char_traits<char>,unsigned __int64>
  014cc	90		 npad	 1
$LN2169@interprete:
; Line 4301
  014cd	48 8b 54 24 38	 mov	 rdx, QWORD PTR $T435[rsp+24]
  014d2	48 83 fa 10	 cmp	 rdx, 16
  014d6	72 32		 jb	 SHORT $LN2226@interprete
; Line 4305
  014d8	48 ff c2	 inc	 rdx
; File C:\Program Files (x86)\Microsoft Visual Studio\2019\Community\VC\Tools\MSVC\14.27.29110\include\xmemory
; Line 803
  014db	48 8b 4c 24 20	 mov	 rcx, QWORD PTR $T435[rsp]
  014e0	48 8b c1	 mov	 rax, rcx
; Line 216
  014e3	48 81 fa 00 10
	00 00		 cmp	 rdx, 4096		; 00001000H
  014ea	72 19		 jb	 SHORT $LN2236@interprete
; Line 134
  014ec	48 83 c2 27	 add	 rdx, 39			; 00000027H
; Line 137
  014f0	48 8b 49 f8	 mov	 rcx, QWORD PTR [rcx-8]
  014f4	48 2b c1	 sub	 rax, rcx
; Line 151
  014f7	48 83 c0 f8	 add	 rax, -8
  014fb	48 83 f8 1f	 cmp	 rax, 31
  014ff	0f 87 19 06 00
	00		 ja	 $LN2233@interprete
$LN2236@interprete:
; Line 221
  01505	e8 00 00 00 00	 call	 ??3@YAXPEAX_K@Z		; operator delete
$LN2226@interprete:
; File C:\Users\borys\source\repos\calckonsol\interpreter.cpp
; Line 41
  0150a	83 3d 00 00 00
	00 01		 cmp	 DWORD PTR ?logi@@3HA, 1	; logi
  01511	75 2e		 jne	 SHORT $LN2246@interprete
; Line 45
  01513	48 8d 15 00 00
	00 00		 lea	 rdx, OFFSET FLAT:??_C@_01CLKCMJKC@?5@
  0151a	48 8b 0d 00 00
	00 00		 mov	 rcx, QWORD PTR __imp_?cout@std@@3V?$basic_ostream@DU?$char_traits@D@std@@@1@A
  01521	e8 00 00 00 00	 call	 ??$?6U?$char_traits@D@std@@@std@@YAAEAV?$basic_ostream@DU?$char_traits@D@std@@@0@AEAV10@PEBD@Z ; std::operator<<<std::char_traits<char> >
  01526	48 8b c8	 mov	 rcx, rax
  01529	0f 28 cf	 movaps	 xmm1, xmm7
  0152c	ff 15 00 00 00
	00		 call	 QWORD PTR __imp_??6?$basic_ostream@DU?$char_traits@D@std@@@std@@QEAAAEAV01@N@Z
  01532	48 8b c8	 mov	 rcx, rax
  01535	48 8d 15 00 00
	00 00		 lea	 rdx, OFFSET FLAT:??_C@_01CLKCMJKC@?5@
  0153c	e8 00 00 00 00	 call	 ??$?6U?$char_traits@D@std@@@std@@YAAEAV?$basic_ostream@DU?$char_traits@D@std@@@0@AEAV10@PEBD@Z ; std::operator<<<std::char_traits<char> >
$LN2246@interprete:
; File C:\Program Files (x86)\Microsoft Visual Studio\2019\Community\VC\Tools\MSVC\14.27.29110\include\xstring
; Line 4293
  01541	4c 89 6c 24 30	 mov	 QWORD PTR $T454[rsp+16], r13
; Line 4294
  01546	48 c7 44 24 38
	0f 00 00 00	 mov	 QWORD PTR $T454[rsp+24], 15
; Line 4296
  0154f	c6 44 24 20 00	 mov	 BYTE PTR $T454[rsp], 0
; Line 2984
  01554	41 b8 01 00 00
	00		 mov	 r8d, 1
  0155a	48 8d 15 00 00
	00 00		 lea	 rdx, OFFSET FLAT:??_C@_01NEMOKFLO@?$DN@
  01561	48 8d 4c 24 20	 lea	 rcx, QWORD PTR $T454[rsp]
  01566	e8 00 00 00 00	 call	 ?assign@?$basic_string@DU?$char_traits@D@std@@V?$allocator@D@2@@std@@QEAAAEAV12@QEBD_K@Z ; std::basic_string<char,std::char_traits<char>,std::allocator<char> >::assign
; File C:\Users\borys\source\repos\calckonsol\interpreter.cpp
; Line 232
  0156b	48 8d 44 24 20	 lea	 rax, QWORD PTR $T454[rsp]
  01570	48 89 44 24 40	 mov	 QWORD PTR $T458[rsp], rax
; Line 20
  01575	83 3d 00 00 00
	00 01		 cmp	 DWORD PTR ?logi@@3HA, 1	; logi
  0157c	75 23		 jne	 SHORT $LN2261@interprete
; File C:\Program Files (x86)\Microsoft Visual Studio\2019\Community\VC\Tools\MSVC\14.27.29110\include\xstring
; Line 2144
  0157e	48 8d 54 24 20	 lea	 rdx, QWORD PTR $T454[rsp]
; Line 2145
  01583	48 83 7c 24 38
	10		 cmp	 QWORD PTR $T454[rsp+24], 16
  01589	48 0f 43 54 24
	20		 cmovae	 rdx, QWORD PTR $T454[rsp]
; Line 4642
  0158f	4c 8b 44 24 30	 mov	 r8, QWORD PTR $T454[rsp+16]
  01594	48 8b 0d 00 00
	00 00		 mov	 rcx, QWORD PTR __imp_?cout@std@@3V?$basic_ostream@DU?$char_traits@D@std@@@1@A
  0159b	e8 00 00 00 00	 call	 ??$_Insert_string@DU?$char_traits@D@std@@_K@std@@YAAEAV?$basic_ostream@DU?$char_traits@D@std@@@0@AEAV10@QEBD_K@Z ; std::_Insert_string<char,std::char_traits<char>,unsigned __int64>
  015a0	90		 npad	 1
$LN2261@interprete:
; Line 4301
  015a1	48 8b 54 24 38	 mov	 rdx, QWORD PTR $T454[rsp+24]
  015a6	48 83 fa 10	 cmp	 rdx, 16
  015aa	72 32		 jb	 SHORT $LN2318@interprete
; Line 4305
  015ac	48 ff c2	 inc	 rdx
; File C:\Program Files (x86)\Microsoft Visual Studio\2019\Community\VC\Tools\MSVC\14.27.29110\include\xmemory
; Line 803
  015af	48 8b 4c 24 20	 mov	 rcx, QWORD PTR $T454[rsp]
  015b4	48 8b c1	 mov	 rax, rcx
; Line 216
  015b7	48 81 fa 00 10
	00 00		 cmp	 rdx, 4096		; 00001000H
  015be	72 19		 jb	 SHORT $LN2328@interprete
; Line 134
  015c0	48 83 c2 27	 add	 rdx, 39			; 00000027H
; Line 137
  015c4	48 8b 49 f8	 mov	 rcx, QWORD PTR [rcx-8]
  015c8	48 2b c1	 sub	 rax, rcx
; Line 151
  015cb	48 83 c0 f8	 add	 rax, -8
  015cf	48 83 f8 1f	 cmp	 rax, 31
  015d3	0f 87 4c 05 00
	00		 ja	 $LN2325@interprete
$LN2328@interprete:
; Line 221
  015d9	e8 00 00 00 00	 call	 ??3@YAXPEAX_K@Z		; operator delete
$LN2318@interprete:
; File C:\Users\borys\source\repos\calckonsol\interpreter.cpp
; Line 232
  015de	0f bf 0d 00 00
	00 00		 movsx	 ecx, WORD PTR ?min_za@@3FA ; min_za
  015e5	8b c1		 mov	 eax, ecx
  015e7	2b c6		 sub	 eax, esi
  015e9	66 0f 6e f0	 movd	 xmm6, eax
  015ed	f3 0f e6 f6	 cvtdq2pd xmm6, xmm6
; Line 41
  015f1	83 3d 00 00 00
	00 01		 cmp	 DWORD PTR ?logi@@3HA, 1	; logi
  015f8	75 35		 jne	 SHORT $LN2338@interprete
; Line 45
  015fa	48 8d 15 00 00
	00 00		 lea	 rdx, OFFSET FLAT:??_C@_01CLKCMJKC@?5@
  01601	48 8b 0d 00 00
	00 00		 mov	 rcx, QWORD PTR __imp_?cout@std@@3V?$basic_ostream@DU?$char_traits@D@std@@@1@A
  01608	e8 00 00 00 00	 call	 ??$?6U?$char_traits@D@std@@@std@@YAAEAV?$basic_ostream@DU?$char_traits@D@std@@@0@AEAV10@PEBD@Z ; std::operator<<<std::char_traits<char> >
  0160d	48 8b c8	 mov	 rcx, rax
  01610	0f 28 ce	 movaps	 xmm1, xmm6
  01613	ff 15 00 00 00
	00		 call	 QWORD PTR __imp_??6?$basic_ostream@DU?$char_traits@D@std@@@std@@QEAAAEAV01@N@Z
  01619	48 8b c8	 mov	 rcx, rax
  0161c	48 8d 15 00 00
	00 00		 lea	 rdx, OFFSET FLAT:??_C@_01CLKCMJKC@?5@
  01623	e8 00 00 00 00	 call	 ??$?6U?$char_traits@D@std@@@std@@YAAEAV?$basic_ostream@DU?$char_traits@D@std@@@0@AEAV10@PEBD@Z ; std::operator<<<std::char_traits<char> >
  01628	0f b7 0d 00 00
	00 00		 movzx	 ecx, WORD PTR ?min_za@@3FA ; min_za
$LN2338@interprete:
; Line 233
  0162f	0f bf c1	 movsx	 eax, cx
  01632	2b c6		 sub	 eax, esi
  01634	ff c8		 dec	 eax
  01636	4c 63 c0	 movsxd	 r8, eax
  01639	8d 46 01	 lea	 eax, DWORD PTR [rsi+1]
  0163c	48 63 c8	 movsxd	 rcx, eax
; File C:\Program Files (x86)\Microsoft Visual Studio\2019\Community\VC\Tools\MSVC\14.27.29110\include\xstring
; Line 4293
  0163f	4c 89 6c 24 30	 mov	 QWORD PTR $T473[rsp+16], r13
; Line 4294
  01644	48 c7 44 24 38
	0f 00 00 00	 mov	 QWORD PTR $T473[rsp+24], 15
; Line 4296
  0164d	c6 44 24 20 00	 mov	 BYTE PTR $T473[rsp], 0
; Line 2157
  01652	48 8b 45 88	 mov	 rax, QWORD PTR str$[rbp-240]
  01656	48 3b c1	 cmp	 rax, rcx
  01659	0f 82 1b 07 00
	00		 jb	 $LN2574@interprete
; Line 2174
  0165f	48 2b c1	 sub	 rax, rcx
  01662	49 3b c0	 cmp	 rax, r8
  01665	4c 0f 42 c0	 cmovb	 r8, rax
; Line 2144
  01669	48 8d 54 24 78	 lea	 rdx, QWORD PTR str$[rsp]
; Line 2145
  0166e	48 83 7d 90 10	 cmp	 QWORD PTR str$[rbp-232], 16
  01673	48 0f 43 54 24
	78		 cmovae	 rdx, QWORD PTR str$[rsp]
; Line 2946
  01679	48 03 d1	 add	 rdx, rcx
  0167c	48 8d 4c 24 20	 lea	 rcx, QWORD PTR $T473[rsp]
  01681	e8 00 00 00 00	 call	 ?assign@?$basic_string@DU?$char_traits@D@std@@V?$allocator@D@2@@std@@QEAAAEAV12@QEBD_K@Z ; std::basic_string<char,std::char_traits<char>,std::allocator<char> >::assign
; Line 4087
  01686	41 83 cf 02	 or	 r15d, 2
; Line 4301
  0168a	48 8b 55 d0	 mov	 rdx, QWORD PTR war_prawa$542[rbp-232]
  0168e	48 83 fa 10	 cmp	 rdx, 16
  01692	72 31		 jb	 SHORT $LN2383@interprete
; Line 4305
  01694	48 ff c2	 inc	 rdx
; File C:\Program Files (x86)\Microsoft Visual Studio\2019\Community\VC\Tools\MSVC\14.27.29110\include\xmemory
; Line 803
  01697	48 8b 4d b8	 mov	 rcx, QWORD PTR war_prawa$542[rbp-256]
  0169b	48 8b c1	 mov	 rax, rcx
; Line 216
  0169e	48 81 fa 00 10
	00 00		 cmp	 rdx, 4096		; 00001000H
  016a5	72 19		 jb	 SHORT $LN2393@interprete
; Line 134
  016a7	48 83 c2 27	 add	 rdx, 39			; 00000027H
; Line 137
  016ab	48 8b 49 f8	 mov	 rcx, QWORD PTR [rcx-8]
  016af	48 2b c1	 sub	 rax, rcx
; Line 151
  016b2	48 83 c0 f8	 add	 rax, -8
  016b6	48 83 f8 1f	 cmp	 rax, 31
  016ba	0f 87 6c 04 00
	00		 ja	 $LN2390@interprete
$LN2393@interprete:
; Line 221
  016c0	e8 00 00 00 00	 call	 ??3@YAXPEAX_K@Z		; operator delete
$LN2383@interprete:
; File C:\Program Files (x86)\Microsoft Visual Studio\2019\Community\VC\Tools\MSVC\14.27.29110\include\xstring
; Line 2606
  016c5	0f 10 44 24 20	 movups	 xmm0, XMMWORD PTR $T473[rsp]
  016ca	0f 11 45 b8	 movups	 XMMWORD PTR war_prawa$542[rbp-256], xmm0
  016ce	0f 10 4c 24 30	 movups	 xmm1, XMMWORD PTR $T473[rsp+16]
  016d3	0f 11 4d c8	 movups	 XMMWORD PTR war_prawa$542[rbp-240], xmm1
; Line 4293
  016d7	4c 89 6c 24 30	 mov	 QWORD PTR $T489[rsp+16], r13
; Line 4294
  016dc	48 c7 44 24 38
	0f 00 00 00	 mov	 QWORD PTR $T489[rsp+24], 15
; Line 4296
  016e5	c6 44 24 20 00	 mov	 BYTE PTR $T489[rsp], 0
; Line 2984
  016ea	41 b8 0b 00 00
	00		 mov	 r8d, 11
  016f0	48 8d 15 00 00
	00 00		 lea	 rdx, OFFSET FLAT:??_C@_0M@EIIOGGFI@War?5prawa?$DN?5@
  016f7	48 8d 4c 24 20	 lea	 rcx, QWORD PTR $T489[rsp]
  016fc	e8 00 00 00 00	 call	 ?assign@?$basic_string@DU?$char_traits@D@std@@V?$allocator@D@2@@std@@QEAAAEAV12@QEBD_K@Z ; std::basic_string<char,std::char_traits<char>,std::allocator<char> >::assign
; File C:\Users\borys\source\repos\calckonsol\interpreter.cpp
; Line 234
  01701	48 8d 44 24 20	 lea	 rax, QWORD PTR $T489[rsp]
  01706	48 89 44 24 40	 mov	 QWORD PTR $T493[rsp], rax
; Line 20
  0170b	83 3d 00 00 00
	00 01		 cmp	 DWORD PTR ?logi@@3HA, 1	; logi
  01712	75 23		 jne	 SHORT $LN2445@interprete
; File C:\Program Files (x86)\Microsoft Visual Studio\2019\Community\VC\Tools\MSVC\14.27.29110\include\xstring
; Line 2144
  01714	48 8d 54 24 20	 lea	 rdx, QWORD PTR $T489[rsp]
; Line 2145
  01719	48 83 7c 24 38
	10		 cmp	 QWORD PTR $T489[rsp+24], 16
  0171f	48 0f 43 54 24
	20		 cmovae	 rdx, QWORD PTR $T489[rsp]
; Line 4642
  01725	4c 8b 44 24 30	 mov	 r8, QWORD PTR $T489[rsp+16]
  0172a	48 8b 0d 00 00
	00 00		 mov	 rcx, QWORD PTR __imp_?cout@std@@3V?$basic_ostream@DU?$char_traits@D@std@@@1@A
  01731	e8 00 00 00 00	 call	 ??$_Insert_string@DU?$char_traits@D@std@@_K@std@@YAAEAV?$basic_ostream@DU?$char_traits@D@std@@@0@AEAV10@QEBD_K@Z ; std::_Insert_string<char,std::char_traits<char>,unsigned __int64>
  01736	90		 npad	 1
$LN2445@interprete:
; Line 4301
  01737	48 8b 54 24 38	 mov	 rdx, QWORD PTR $T489[rsp+24]
  0173c	48 83 fa 10	 cmp	 rdx, 16
  01740	72 32		 jb	 SHORT $LN2502@interprete
; Line 4305
  01742	48 ff c2	 inc	 rdx
; File C:\Program Files (x86)\Microsoft Visual Studio\2019\Community\VC\Tools\MSVC\14.27.29110\include\xmemory
; Line 803
  01745	48 8b 4c 24 20	 mov	 rcx, QWORD PTR $T489[rsp]
  0174a	48 8b c1	 mov	 rax, rcx
; Line 216
  0174d	48 81 fa 00 10
	00 00		 cmp	 rdx, 4096		; 00001000H
  01754	72 19		 jb	 SHORT $LN2512@interprete
; Line 134
  01756	48 83 c2 27	 add	 rdx, 39			; 00000027H
; Line 137
  0175a	48 8b 49 f8	 mov	 rcx, QWORD PTR [rcx-8]
  0175e	48 2b c1	 sub	 rax, rcx
; Line 151
  01761	48 83 c0 f8	 add	 rax, -8
  01765	48 83 f8 1f	 cmp	 rax, 31
  01769	0f 87 c4 03 00
	00		 ja	 $LN2509@interprete
$LN2512@interprete:
; Line 221
  0176f	e8 00 00 00 00	 call	 ??3@YAXPEAX_K@Z		; operator delete
$LN2502@interprete:
; File C:\Program Files (x86)\Microsoft Visual Studio\2019\Community\VC\Tools\MSVC\14.27.29110\include\xstring
; Line 2124
  01774	4c 89 6c 24 30	 mov	 QWORD PTR $T508[rsp+16], r13
  01779	4c 89 6c 24 38	 mov	 QWORD PTR $T508[rsp+24], r13
; Line 2656
  0177e	48 8b 7d c8	 mov	 rdi, QWORD PTR war_prawa$542[rbp-240]
; Line 2144
  01782	48 8d 75 b8	 lea	 rsi, QWORD PTR war_prawa$542[rbp-256]
; Line 2145
  01786	48 83 7d d0 10	 cmp	 QWORD PTR war_prawa$542[rbp-232], 16
  0178b	48 0f 43 75 b8	 cmovae	 rsi, QWORD PTR war_prawa$542[rbp-256]
; Line 2659
  01790	48 83 ff 10	 cmp	 rdi, 16
  01794	73 13		 jae	 SHORT $LN2525@interprete
; Line 328
  01796	0f 10 06	 movups	 xmm0, XMMWORD PTR [rsi]
  01799	0f 11 44 24 20	 movups	 XMMWORD PTR $T508[rsp], xmm0
; Line 2662
  0179e	48 c7 44 24 38
	0f 00 00 00	 mov	 QWORD PTR $T508[rsp+24], 15
; Line 2663
  017a7	eb 7c		 jmp	 SHORT $LN2641@interprete
$LN2525@interprete:
; Line 2667
  017a9	48 8b df	 mov	 rbx, rdi
  017ac	48 83 cb 0f	 or	 rbx, 15
  017b0	48 b8 ff ff ff
	ff ff ff ff 7f	 mov	 rax, 9223372036854775807 ; 7fffffffffffffffH
  017ba	48 3b d8	 cmp	 rbx, rax
  017bd	48 0f 47 d8	 cmova	 rbx, rax
; Line 2668
  017c1	48 8d 4b 01	 lea	 rcx, QWORD PTR [rbx+1]
; File C:\Program Files (x86)\Microsoft Visual Studio\2019\Community\VC\Tools\MSVC\14.27.29110\include\xmemory
; Line 200
  017c5	48 81 f9 00 10
	00 00		 cmp	 rcx, 4096		; 00001000H
  017cc	72 2f		 jb	 SHORT $LN2539@interprete
; Line 115
  017ce	48 8d 41 27	 lea	 rax, QWORD PTR [rcx+39]
; Line 116
  017d2	48 3b c1	 cmp	 rax, rcx
  017d5	0f 86 99 05 00
	00		 jbe	 $LN2575@interprete
; Line 77
  017db	48 8b c8	 mov	 rcx, rax
  017de	e8 00 00 00 00	 call	 ??2@YAPEAX_K@Z		; operator new
  017e3	48 8b c8	 mov	 rcx, rax
; Line 121
  017e6	48 85 c0	 test	 rax, rax
  017e9	0f 84 4b 03 00
	00		 je	 $LN2548@interprete
; Line 122
  017ef	48 83 c0 27	 add	 rax, 39			; 00000027H
  017f3	48 83 e0 e0	 and	 rax, -32		; ffffffffffffffe0H
; Line 123
  017f7	48 89 48 f8	 mov	 QWORD PTR [rax-8], rcx
; Line 201
  017fb	eb 0f		 jmp	 SHORT $LN2538@interprete
$LN2539@interprete:
; Line 205
  017fd	48 85 c9	 test	 rcx, rcx
  01800	74 07		 je	 SHORT $LN2540@interprete
; Line 77
  01802	e8 00 00 00 00	 call	 ??2@YAPEAX_K@Z		; operator new
; Line 206
  01807	eb 03		 jmp	 SHORT $LN2538@interprete
$LN2540@interprete:
; Line 209
  01809	49 8b c5	 mov	 rax, r13
$LN2538@interprete:
; File C:\Program Files (x86)\Microsoft Visual Studio\2019\Community\VC\Tools\MSVC\14.27.29110\include\xstring
; Line 2669
  0180c	48 89 44 24 20	 mov	 QWORD PTR $T508[rsp], rax
; Line 2670
  01811	4c 8d 47 01	 lea	 r8, QWORD PTR [rdi+1]
; Line 328
  01815	48 8b d6	 mov	 rdx, rsi
  01818	48 8b c8	 mov	 rcx, rax
  0181b	e8 00 00 00 00	 call	 memcpy
; Line 2672
  01820	48 89 5c 24 38	 mov	 QWORD PTR $T508[rsp+24], rbx
$LN2641@interprete:
; File C:\Users\borys\source\repos\calckonsol\interpreter.cpp
; Line 235
  01825	48 89 7c 24 30	 mov	 QWORD PTR $T508[rsp+16], rdi
  0182a	ba 01 00 00 00	 mov	 edx, 1
  0182f	44 8b c2	 mov	 r8d, edx
  01832	48 8d 4c 24 20	 lea	 rcx, QWORD PTR $T508[rsp]
  01837	e8 00 00 00 00	 call	 ?log@@YAXV?$basic_string@DU?$char_traits@D@std@@V?$allocator@D@2@@std@@HH@Z ; log
; Line 237
  0183c	48 8d 15 00 00
	00 00		 lea	 rdx, OFFSET FLAT:??_C@_0N@OLHDHMLK@War?5wyraz?5?$DN?5@
  01843	48 8d 4c 24 20	 lea	 rcx, QWORD PTR $T518[rsp]
  01848	e8 00 00 00 00	 call	 ??0?$basic_string@DU?$char_traits@D@std@@V?$allocator@D@2@@std@@QEAA@QEBD@Z ; std::basic_string<char,std::char_traits<char>,std::allocator<char> >::basic_string<char,std::char_traits<char>,std::allocator<char> >
  0184d	33 d2		 xor	 edx, edx
  0184f	44 8d 42 01	 lea	 r8d, QWORD PTR [rdx+1]
  01853	48 8b c8	 mov	 rcx, rax
  01856	e8 00 00 00 00	 call	 ?log@@YAXV?$basic_string@DU?$char_traits@D@std@@V?$allocator@D@2@@std@@HH@Z ; log
; Line 238
  0185b	0f bf 0d 00 00
	00 00		 movsx	 ecx, WORD PTR ?min_przed@@3FA ; min_przed
  01862	0f bf 05 00 00
	00 00		 movsx	 eax, WORD PTR ?min_za@@3FA ; min_za
  01869	2b c1		 sub	 eax, ecx
  0186b	ff c8		 dec	 eax
  0186d	4c 63 c8	 movsxd	 r9, eax
  01870	8d 41 01	 lea	 eax, DWORD PTR [rcx+1]
  01873	4c 63 c0	 movsxd	 r8, eax
  01876	48 8d 54 24 20	 lea	 rdx, QWORD PTR $T520[rsp]
  0187b	48 8d 4c 24 78	 lea	 rcx, QWORD PTR str$[rsp]
  01880	e8 00 00 00 00	 call	 ?substr@?$basic_string@DU?$char_traits@D@std@@V?$allocator@D@2@@std@@QEBA?AV12@_K0@Z ; std::basic_string<char,std::char_traits<char>,std::allocator<char> >::substr
  01885	48 8b d0	 mov	 rdx, rax
  01888	48 8d 4d d8	 lea	 rcx, QWORD PTR war_wyraz$543[rbp-256]
  0188c	e8 00 00 00 00	 call	 ??4?$basic_string@DU?$char_traits@D@std@@V?$allocator@D@2@@std@@QEAAAEAV01@$$QEAV01@@Z ; std::basic_string<char,std::char_traits<char>,std::allocator<char> >::operator=
  01891	48 8d 4c 24 20	 lea	 rcx, QWORD PTR $T520[rsp]
  01896	e8 00 00 00 00	 call	 ??1?$basic_string@DU?$char_traits@D@std@@V?$allocator@D@2@@std@@QEAA@XZ ; std::basic_string<char,std::char_traits<char>,std::allocator<char> >::~basic_string<char,std::char_traits<char>,std::allocator<char> >
; Line 239
  0189b	48 8d 55 d8	 lea	 rdx, QWORD PTR war_wyraz$543[rbp-256]
  0189f	48 8d 4c 24 20	 lea	 rcx, QWORD PTR $T521[rsp]
  018a4	e8 00 00 00 00	 call	 ??0?$basic_string@DU?$char_traits@D@std@@V?$allocator@D@2@@std@@QEAA@AEBV01@@Z ; std::basic_string<char,std::char_traits<char>,std::allocator<char> >::basic_string<char,std::char_traits<char>,std::allocator<char> >
  018a9	ba 01 00 00 00	 mov	 edx, 1
  018ae	44 8b c2	 mov	 r8d, edx
  018b1	48 8b c8	 mov	 rcx, rax
  018b4	e8 00 00 00 00	 call	 ?log@@YAXV?$basic_string@DU?$char_traits@D@std@@V?$allocator@D@2@@std@@HH@Z ; log
; Line 241
  018b9	48 8d 15 00 00
	00 00		 lea	 rdx, OFFSET FLAT:??_C@_0BG@LOFLGAPA@Operacje?5matematyczne@
  018c0	48 8d 4c 24 20	 lea	 rcx, QWORD PTR $T523[rsp]
  018c5	e8 00 00 00 00	 call	 ??0?$basic_string@DU?$char_traits@D@std@@V?$allocator@D@2@@std@@QEAA@QEBD@Z ; std::basic_string<char,std::char_traits<char>,std::allocator<char> >::basic_string<char,std::char_traits<char>,std::allocator<char> >
  018ca	33 d2		 xor	 edx, edx
  018cc	44 8d 42 01	 lea	 r8d, QWORD PTR [rdx+1]
  018d0	48 8b c8	 mov	 rcx, rax
  018d3	e8 00 00 00 00	 call	 ?log@@YAXV?$basic_string@DU?$char_traits@D@std@@V?$allocator@D@2@@std@@HH@Z ; log
; Line 242
  018d8	41 0f bf cc	 movsx	 ecx, r12w
  018dc	33 d2		 xor	 edx, edx
  018de	e8 00 00 00 00	 call	 ?znak_jaki_log@@YAXHH@Z	; znak_jaki_log
; Line 243
  018e3	49 0f bf dc	 movsx	 rbx, r12w
  018e7	48 8d 4d b8	 lea	 rcx, QWORD PTR war_prawa$542[rbp-256]
  018eb	e8 00 00 00 00	 call	 ?stod@std@@YANAEBV?$basic_string@DU?$char_traits@D@std@@V?$allocator@D@2@@1@PEA_K@Z ; std::stod
  018f0	0f 28 f0	 movaps	 xmm6, xmm0
  018f3	48 8d 4c 24 58	 lea	 rcx, QWORD PTR war_lewa$541[rsp]
  018f8	e8 00 00 00 00	 call	 ?stod@std@@YANAEBV?$basic_string@DU?$char_traits@D@std@@V?$allocator@D@2@@1@PEA_K@Z ; std::stod
  018fd	48 8d 3d 00 00
	00 00		 lea	 rdi, OFFSET FLAT:__ImageBase
  01904	44 0f b6 84 3b
	00 00 00 00	 movzx	 r8d, BYTE PTR ?chars@@3QBDB[rbx+rdi]
  0190d	0f 28 ce	 movaps	 xmm1, xmm6
  01910	e8 00 00 00 00	 call	 ?dod@@YANNND@Z		; dod
  01915	0f 28 f0	 movaps	 xmm6, xmm0
; Line 244
  01918	ba 01 00 00 00	 mov	 edx, 1
  0191d	e8 00 00 00 00	 call	 ?lo@@YAXNF@Z		; lo
; Line 246
  01922	48 8d 15 00 00
	00 00		 lea	 rdx, OFFSET FLAT:??_C@_0BM@IKOJLLGE@Zamiana?5wartosci?5na?5string?5@
  01929	48 8d 4c 24 20	 lea	 rcx, QWORD PTR $T525[rsp]
  0192e	e8 00 00 00 00	 call	 ??0?$basic_string@DU?$char_traits@D@std@@V?$allocator@D@2@@std@@QEAA@QEBD@Z ; std::basic_string<char,std::char_traits<char>,std::allocator<char> >::basic_string<char,std::char_traits<char>,std::allocator<char> >
  01933	ba 01 00 00 00	 mov	 edx, 1
  01938	44 8b c2	 mov	 r8d, edx
  0193b	48 8b c8	 mov	 rcx, rax
  0193e	e8 00 00 00 00	 call	 ?log@@YAXV?$basic_string@DU?$char_traits@D@std@@V?$allocator@D@2@@std@@HH@Z ; log
; Line 247
  01943	0f 28 ce	 movaps	 xmm1, xmm6
  01946	48 8d 4c 24 20	 lea	 rcx, QWORD PTR $T527[rsp]
  0194b	e8 00 00 00 00	 call	 ?to_string@std@@YA?AV?$basic_string@DU?$char_traits@D@std@@V?$allocator@D@2@@1@N@Z ; std::to_string
  01950	48 8b d0	 mov	 rdx, rax
  01953	48 8d 4d f8	 lea	 rcx, QWORD PTR wynik_str$544[rbp-256]
  01957	e8 00 00 00 00	 call	 ??4?$basic_string@DU?$char_traits@D@std@@V?$allocator@D@2@@std@@QEAAAEAV01@$$QEAV01@@Z ; std::basic_string<char,std::char_traits<char>,std::allocator<char> >::operator=
  0195c	48 8d 4c 24 20	 lea	 rcx, QWORD PTR $T527[rsp]
  01961	e8 00 00 00 00	 call	 ??1?$basic_string@DU?$char_traits@D@std@@V?$allocator@D@2@@std@@QEAA@XZ ; std::basic_string<char,std::char_traits<char>,std::allocator<char> >::~basic_string<char,std::char_traits<char>,std::allocator<char> >
; Line 249
  01966	48 8d 15 00 00
	00 00		 lea	 rdx, OFFSET FLAT:??_C@_0BD@HBLEFPHG@Zmiana?5w?5stringach@
  0196d	48 8d 4c 24 20	 lea	 rcx, QWORD PTR $T528[rsp]
  01972	e8 00 00 00 00	 call	 ??0?$basic_string@DU?$char_traits@D@std@@V?$allocator@D@2@@std@@QEAA@QEBD@Z ; std::basic_string<char,std::char_traits<char>,std::allocator<char> >::basic_string<char,std::char_traits<char>,std::allocator<char> >
  01977	ba 01 00 00 00	 mov	 edx, 1
  0197c	44 8b c2	 mov	 r8d, edx
  0197f	48 8b c8	 mov	 rcx, rax
  01982	e8 00 00 00 00	 call	 ?log@@YAXV?$basic_string@DU?$char_traits@D@std@@V?$allocator@D@2@@std@@HH@Z ; log
; Line 250
  01987	0f bf 05 00 00
	00 00		 movsx	 eax, WORD PTR ?min_przed@@3FA ; min_przed
  0198e	0f bf 0d 00 00
	00 00		 movsx	 ecx, WORD PTR ?min_za@@3FA ; min_za
  01995	2b c8		 sub	 ecx, eax
  01997	ff c9		 dec	 ecx
  01999	4c 63 c1	 movsxd	 r8, ecx
  0199c	4c 8d 4d f8	 lea	 r9, QWORD PTR wynik_str$544[rbp-256]
  019a0	48 8d 4c 24 78	 lea	 rcx, QWORD PTR str$[rsp]
  019a5	e8 00 00 00 00	 call	 ?replace@?$basic_string@DU?$char_traits@D@std@@V?$allocator@D@2@@std@@QEAAAEAV12@_K0AEBV12@@Z ; std::basic_string<char,std::char_traits<char>,std::allocator<char> >::replace
; Line 251
  019aa	48 8d 15 00 00
	00 00		 lea	 rdx, OFFSET FLAT:??_C@_0BF@KKOOCJGH@String?5wyglada?5tak?3?5@
  019b1	48 8d 4c 24 20	 lea	 rcx, QWORD PTR $T530[rsp]
  019b6	e8 00 00 00 00	 call	 ??0?$basic_string@DU?$char_traits@D@std@@V?$allocator@D@2@@std@@QEAA@QEBD@Z ; std::basic_string<char,std::char_traits<char>,std::allocator<char> >::basic_string<char,std::char_traits<char>,std::allocator<char> >
  019bb	33 d2		 xor	 edx, edx
  019bd	44 8d 42 01	 lea	 r8d, QWORD PTR [rdx+1]
  019c1	48 8b c8	 mov	 rcx, rax
  019c4	e8 00 00 00 00	 call	 ?log@@YAXV?$basic_string@DU?$char_traits@D@std@@V?$allocator@D@2@@std@@HH@Z ; log
; Line 252
  019c9	48 8d 54 24 78	 lea	 rdx, QWORD PTR str$[rsp]
  019ce	48 8d 4c 24 20	 lea	 rcx, QWORD PTR $T532[rsp]
  019d3	e8 00 00 00 00	 call	 ??0?$basic_string@DU?$char_traits@D@std@@V?$allocator@D@2@@std@@QEAA@AEBV01@@Z ; std::basic_string<char,std::char_traits<char>,std::allocator<char> >::basic_string<char,std::char_traits<char>,std::allocator<char> >
  019d8	ba 01 00 00 00	 mov	 edx, 1
  019dd	44 8b c2	 mov	 r8d, edx
  019e0	48 8b c8	 mov	 rcx, rax
  019e3	e8 00 00 00 00	 call	 ?log@@YAXV?$basic_string@DU?$char_traits@D@std@@V?$allocator@D@2@@std@@HH@Z ; log
; Line 254
  019e8	48 8d 15 00 00
	00 00		 lea	 rdx, OFFSET FLAT:??_C@_0BH@MCLNCHGI@Nowa?5dlugosc?5stringa?3?5@
  019ef	48 8d 4c 24 20	 lea	 rcx, QWORD PTR $T534[rsp]
  019f4	e8 00 00 00 00	 call	 ??0?$basic_string@DU?$char_traits@D@std@@V?$allocator@D@2@@std@@QEAA@QEBD@Z ; std::basic_string<char,std::char_traits<char>,std::allocator<char> >::basic_string<char,std::char_traits<char>,std::allocator<char> >
  019f9	33 d2		 xor	 edx, edx
  019fb	44 8d 42 01	 lea	 r8d, QWORD PTR [rdx+1]
  019ff	48 8b c8	 mov	 rcx, rax
  01a02	e8 00 00 00 00	 call	 ?log@@YAXV?$basic_string@DU?$char_traits@D@std@@V?$allocator@D@2@@std@@HH@Z ; log
; Line 255
  01a07	44 8b 75 88	 mov	 r14d, DWORD PTR str$[rbp-240]
; Line 256
  01a0b	ba 01 00 00 00	 mov	 edx, 1
  01a10	66 41 0f 6e c6	 movd	 xmm0, r14d
  01a15	f3 0f e6 c0	 cvtdq2pd xmm0, xmm0
  01a19	e8 00 00 00 00	 call	 ?lo@@YAXNF@Z		; lo
; Line 258
  01a1e	48 8d 15 00 00
	00 00		 lea	 rdx, OFFSET FLAT:??_C@_0BM@BLDOMMGJ@Czy?$JMcimy?5stringi?5i?5wartosci@
  01a25	48 8d 4c 24 20	 lea	 rcx, QWORD PTR $T536[rsp]
  01a2a	e8 00 00 00 00	 call	 ??0?$basic_string@DU?$char_traits@D@std@@V?$allocator@D@2@@std@@QEAA@QEBD@Z ; std::basic_string<char,std::char_traits<char>,std::allocator<char> >::basic_string<char,std::char_traits<char>,std::allocator<char> >
  01a2f	ba 01 00 00 00	 mov	 edx, 1
  01a34	44 8b c2	 mov	 r8d, edx
  01a37	48 8b c8	 mov	 rcx, rax
  01a3a	e8 00 00 00 00	 call	 ?log@@YAXV?$basic_string@DU?$char_traits@D@std@@V?$allocator@D@2@@std@@HH@Z ; log
; Line 259
  01a3f	48 8d 4d f8	 lea	 rcx, QWORD PTR wynik_str$544[rbp-256]
  01a43	e8 00 00 00 00	 call	 ?clear@?$basic_string@DU?$char_traits@D@std@@V?$allocator@D@2@@std@@QEAAXXZ ; std::basic_string<char,std::char_traits<char>,std::allocator<char> >::clear
; Line 260
  01a48	48 8d 4c 24 58	 lea	 rcx, QWORD PTR war_lewa$541[rsp]
  01a4d	e8 00 00 00 00	 call	 ?clear@?$basic_string@DU?$char_traits@D@std@@V?$allocator@D@2@@std@@QEAAXXZ ; std::basic_string<char,std::char_traits<char>,std::allocator<char> >::clear
; Line 261
  01a52	48 8d 4d b8	 lea	 rcx, QWORD PTR war_prawa$542[rbp-256]
  01a56	e8 00 00 00 00	 call	 ?clear@?$basic_string@DU?$char_traits@D@std@@V?$allocator@D@2@@std@@QEAAXXZ ; std::basic_string<char,std::char_traits<char>,std::allocator<char> >::clear
; Line 262
  01a5b	48 8d 4d d8	 lea	 rcx, QWORD PTR war_wyraz$543[rbp-256]
  01a5f	e8 00 00 00 00	 call	 ?clear@?$basic_string@DU?$char_traits@D@std@@V?$allocator@D@2@@std@@QEAAXXZ ; std::basic_string<char,std::char_traits<char>,std::allocator<char> >::clear
; Line 263
  01a64	0f b6 94 3b 00
	00 00 00	 movzx	 edx, BYTE PTR ?chars@@3QBDB[rbx+rdi]
  01a6c	48 8d 4c 24 78	 lea	 rcx, QWORD PTR str$[rsp]
  01a71	e8 00 00 00 00	 call	 ?find@?$basic_string@DU?$char_traits@D@std@@V?$allocator@D@2@@std@@QEBA_KD_K@Z ; std::basic_string<char,std::char_traits<char>,std::allocator<char> >::find
  01a76	8b f0		 mov	 esi, eax
; Line 264
  01a78	48 8d 4d f8	 lea	 rcx, QWORD PTR wynik_str$544[rbp-256]
  01a7c	e8 00 00 00 00	 call	 ??1?$basic_string@DU?$char_traits@D@std@@V?$allocator@D@2@@std@@QEAA@XZ ; std::basic_string<char,std::char_traits<char>,std::allocator<char> >::~basic_string<char,std::char_traits<char>,std::allocator<char> >
  01a81	90		 npad	 1
  01a82	48 8d 4d d8	 lea	 rcx, QWORD PTR war_wyraz$543[rbp-256]
  01a86	e8 00 00 00 00	 call	 ??1?$basic_string@DU?$char_traits@D@std@@V?$allocator@D@2@@std@@QEAA@XZ ; std::basic_string<char,std::char_traits<char>,std::allocator<char> >::~basic_string<char,std::char_traits<char>,std::allocator<char> >
  01a8b	90		 npad	 1
  01a8c	48 8d 4d b8	 lea	 rcx, QWORD PTR war_prawa$542[rbp-256]
  01a90	e8 00 00 00 00	 call	 ??1?$basic_string@DU?$char_traits@D@std@@V?$allocator@D@2@@std@@QEAA@XZ ; std::basic_string<char,std::char_traits<char>,std::allocator<char> >::~basic_string<char,std::char_traits<char>,std::allocator<char> >
  01a95	90		 npad	 1
  01a96	48 8d 4c 24 58	 lea	 rcx, QWORD PTR war_lewa$541[rsp]
  01a9b	e8 00 00 00 00	 call	 ??1?$basic_string@DU?$char_traits@D@std@@V?$allocator@D@2@@std@@QEAA@XZ ; std::basic_string<char,std::char_traits<char>,std::allocator<char> >::~basic_string<char,std::char_traits<char>,std::allocator<char> >
; Line 210
  01aa0	83 fe ff	 cmp	 esi, -1
  01aa3	48 c7 c7 ff ff
	ff ff		 mov	 rdi, -1
  01aaa	0f 85 80 f0 ff
	ff		 jne	 $LL6@interprete
; Line 266
  01ab0	e9 2b ec ff ff	 jmp	 $LL2@interprete
$LN718@interprete:
; File C:\Program Files (x86)\Microsoft Visual Studio\2019\Community\VC\Tools\MSVC\14.27.29110\include\xmemory
; Line 151
  01ab5	ff 15 00 00 00
	00		 call	 QWORD PTR __imp__invalid_parameter_noinfo_noreturn
  01abb	cc		 int	 3
$LN810@interprete:
  01abc	ff 15 00 00 00
	00		 call	 QWORD PTR __imp__invalid_parameter_noinfo_noreturn
  01ac2	cc		 int	 3
$LN915@interprete:
  01ac3	ff 15 00 00 00
	00		 call	 QWORD PTR __imp__invalid_parameter_noinfo_noreturn
  01ac9	cc		 int	 3
$LN1007@interprete:
  01aca	ff 15 00 00 00
	00		 call	 QWORD PTR __imp__invalid_parameter_noinfo_noreturn
  01ad0	cc		 int	 3
$LN1270@interprete:
  01ad1	ff 15 00 00 00
	00		 call	 QWORD PTR __imp__invalid_parameter_noinfo_noreturn
  01ad7	cc		 int	 3
$LN1356@interprete:
  01ad8	ff 15 00 00 00
	00		 call	 QWORD PTR __imp__invalid_parameter_noinfo_noreturn
  01ade	90		 npad	 1
$LN1431@interprete:
; Line 121
  01adf	ff 15 00 00 00
	00		 call	 QWORD PTR __imp__invalid_parameter_noinfo_noreturn
  01ae5	cc		 int	 3
$LN1476@interprete:
  01ae6	ff 15 00 00 00
	00		 call	 QWORD PTR __imp__invalid_parameter_noinfo_noreturn
  01aec	cc		 int	 3
$LN1568@interprete:
; Line 151
  01aed	ff 15 00 00 00
	00		 call	 QWORD PTR __imp__invalid_parameter_noinfo_noreturn
  01af3	cc		 int	 3
$LN1660@interprete:
  01af4	ff 15 00 00 00
	00		 call	 QWORD PTR __imp__invalid_parameter_noinfo_noreturn
  01afa	cc		 int	 3
$LN1752@interprete:
  01afb	ff 15 00 00 00
	00		 call	 QWORD PTR __imp__invalid_parameter_noinfo_noreturn
  01b01	cc		 int	 3
$LN1817@interprete:
  01b02	ff 15 00 00 00
	00		 call	 QWORD PTR __imp__invalid_parameter_noinfo_noreturn
  01b08	cc		 int	 3
$LN1936@interprete:
  01b09	ff 15 00 00 00
	00		 call	 QWORD PTR __imp__invalid_parameter_noinfo_noreturn
  01b0f	cc		 int	 3
$LN2055@interprete:
  01b10	ff 15 00 00 00
	00		 call	 QWORD PTR __imp__invalid_parameter_noinfo_noreturn
  01b16	cc		 int	 3
$LN2141@interprete:
  01b17	ff 15 00 00 00
	00		 call	 QWORD PTR __imp__invalid_parameter_noinfo_noreturn
  01b1d	cc		 int	 3
$LN2233@interprete:
  01b1e	ff 15 00 00 00
	00		 call	 QWORD PTR __imp__invalid_parameter_noinfo_noreturn
  01b24	cc		 int	 3
$LN2325@interprete:
  01b25	ff 15 00 00 00
	00		 call	 QWORD PTR __imp__invalid_parameter_noinfo_noreturn
  01b2b	cc		 int	 3
$LN2390@interprete:
  01b2c	ff 15 00 00 00
	00		 call	 QWORD PTR __imp__invalid_parameter_noinfo_noreturn
  01b32	cc		 int	 3
$LN2509@interprete:
  01b33	ff 15 00 00 00
