; Listing generated by Microsoft (R) Optimizing Compiler Version 19.27.29112.0 

include listing.inc

INCLUDELIB OLDNAMES

PUBLIC	??_C@_03DDFHDBAB@?$FL?$FN?5@			; `string'
PUBLIC	??_C@_0L@EAKBDINP@chcp?528592@			; `string'
PUBLIC	??_C@_0CP@FBFBCDBM@?$FLCALC?5W?5C?$CL?$CL?$FN?5Kalkulator?5z?5inter@ ; `string'
PUBLIC	??_C@_0CC@HPONLIDP@?$FLC?$FN?5Wci?$JMnij?5C?5aby?5wyczy?$JMcic?5ekr@ ; `string'
PUBLIC	??_C@_0CM@JNGLHMJD@?$FLBACKSPC?$FN?5Wcisnij?5BACKSPC?5aby?5w@ ; `string'
PUBLIC	??_C@_0CM@LAHIMNOF@?$FLSPACJA?$FN?5Wcisnij?5SPACE?5aby?5uzyc@ ; `string'
PUBLIC	??_C@_0CP@PALGDMOK@?$FL?$FN?5Potega?5?8?$FO?8?5?$HM?5Mnozenie?5?8?1?8?5?$HM?5@ ; `string'
PUBLIC	??_C@_0CB@JEKMJHGC@?$FLESC?$FN?5Wcisnij?5ESC?5aby?5zakonczyc@ ; `string'
PUBLIC	??_C@_0BB@CONEPEAG@?$FLDEVELOPER_MODE?$FN@	; `string'
PUBLIC	??_C@_0BF@GEGINAJ@?$FLDEVELOPER_MODE?5OFF?$FN@	; `string'
PUBLIC	??_C@_0CK@CHNGPOLM@?$FL?$FN?5WPROWADZ?5dzialanie?5i?5nacisni@ ; `string'
PUBLIC	??_C@_0BP@PLCLCJFP@?$FL?$FN?5Sam?5sie?5zamkne?4?5Dziekuje?5?3?$CJ@ ; `string'
EXTRN	__imp_Sleep:PROC
EXTRN	__imp_GetStdHandle:PROC
EXTRN	__imp_SetConsoleTextAttribute:PROC
;	COMDAT ??_C@_0BP@PLCLCJFP@?$FL?$FN?5Sam?5sie?5zamkne?4?5Dziekuje?5?3?$CJ@
CONST	SEGMENT
??_C@_0BP@PLCLCJFP@?$FL?$FN?5Sam?5sie?5zamkne?4?5Dziekuje?5?3?$CJ@ DB '[]'
	DB	' Sam sie zamkne. Dziekuje :)', 00H		; `string'
CONST	ENDS
;	COMDAT ??_C@_0CK@CHNGPOLM@?$FL?$FN?5WPROWADZ?5dzialanie?5i?5nacisni@
CONST	SEGMENT
??_C@_0CK@CHNGPOLM@?$FL?$FN?5WPROWADZ?5dzialanie?5i?5nacisni@ DB '[] WPRO'
	DB	'WADZ dzialanie i nacisnij ENTER : ', 00H	; `string'
CONST	ENDS
;	COMDAT ??_C@_0BF@GEGINAJ@?$FLDEVELOPER_MODE?5OFF?$FN@
CONST	SEGMENT
??_C@_0BF@GEGINAJ@?$FLDEVELOPER_MODE?5OFF?$FN@ DB '[DEVELOPER_MODE OFF]', 00H ; `string'
CONST	ENDS
;	COMDAT ??_C@_0BB@CONEPEAG@?$FLDEVELOPER_MODE?$FN@
CONST	SEGMENT
??_C@_0BB@CONEPEAG@?$FLDEVELOPER_MODE?$FN@ DB '[DEVELOPER_MODE]', 00H ; `string'
CONST	ENDS
;	COMDAT ??_C@_0CB@JEKMJHGC@?$FLESC?$FN?5Wcisnij?5ESC?5aby?5zakonczyc@
CONST	SEGMENT
??_C@_0CB@JEKMJHGC@?$FLESC?$FN?5Wcisnij?5ESC?5aby?5zakonczyc@ DB '[ESC] W'
	DB	'cisnij ESC aby zakonczyc ', 00H		; `string'
CONST	ENDS
;	COMDAT ??_C@_0CP@PALGDMOK@?$FL?$FN?5Potega?5?8?$FO?8?5?$HM?5Mnozenie?5?8?1?8?5?$HM?5@
CONST	SEGMENT
??_C@_0CP@PALGDMOK@?$FL?$FN?5Potega?5?8?$FO?8?5?$HM?5Mnozenie?5?8?1?8?5?$HM?5@ DB '['
	DB	'] Potega ''^'' | Mnozenie ''/'' | logarytm ''l(x)''', 00H ; `string'
CONST	ENDS
;	COMDAT ??_C@_0CM@LAHIMNOF@?$FLSPACJA?$FN?5Wcisnij?5SPACE?5aby?5uzyc@
CONST	SEGMENT
??_C@_0CM@LAHIMNOF@?$FLSPACJA?$FN?5Wcisnij?5SPACE?5aby?5uzyc@ DB '[SPACJA'
	DB	'] Wcisnij SPACE aby uzyc kalkulatora', 00H	; `string'
CONST	ENDS
;	COMDAT ??_C@_0CM@JNGLHMJD@?$FLBACKSPC?$FN?5Wcisnij?5BACKSPC?5aby?5w@
CONST	SEGMENT
??_C@_0CM@JNGLHMJD@?$FLBACKSPC?$FN?5Wcisnij?5BACKSPC?5aby?5w@ DB '[BACKSP'
	DB	'C] Wcisnij BACKSPC aby wlaczyc logi ', 00H	; `string'
CONST	ENDS
;	COMDAT ??_C@_0CC@HPONLIDP@?$FLC?$FN?5Wci?$JMnij?5C?5aby?5wyczy?$JMcic?5ekr@
CONST	SEGMENT
??_C@_0CC@HPONLIDP@?$FLC?$FN?5Wci?$JMnij?5C?5aby?5wyczy?$JMcic?5ekr@ DB '['
	DB	'C] Wci', 09cH, 'nij C aby wyczy', 09cH, 'cic ekran', 00H ; `string'
CONST	ENDS
;	COMDAT ??_C@_0CP@FBFBCDBM@?$FLCALC?5W?5C?$CL?$CL?$FN?5Kalkulator?5z?5inter@
CONST	SEGMENT
??_C@_0CP@FBFBCDBM@?$FLCALC?5W?5C?$CL?$CL?$FN?5Kalkulator?5z?5inter@ DB '['
	DB	'CALC W C++] Kalkulator z interpreterem znakow', 00H ; `string'
CONST	ENDS
;	COMDAT ??_C@_0L@EAKBDINP@chcp?528592@
CONST	SEGMENT
??_C@_0L@EAKBDINP@chcp?528592@ DB 'chcp 28592', 00H	; `string'
CONST	ENDS
;	COMDAT ??_C@_03DDFHDBAB@?$FL?$FN?5@
CONST	SEGMENT
??_C@_03DDFHDBAB@?$FL?$FN?5@ DB '[] ', 00H		; `string'
PUBLIC	?color@@YAXF@Z					; color
PUBLIC	?koniec@@YAXXZ					; koniec
PUBLIC	?inf_gl_func@@YAXXZ				; inf_gl_func
PUBLIC	?menu_glowne@@YAXXZ				; menu_glowne
PUBLIC	?logi_wl_wyl@@YAXH@Z				; logi_wl_wyl
;	COMDAT pdata
pdata	SEGMENT
$pdata$?color@@YAXF@Z DD imagerel $LN4@color
	DD	imagerel $LN4@color+38
	DD	imagerel $unwind$?color@@YAXF@Z
pdata	ENDS
;	COMDAT pdata
pdata	SEGMENT
$pdata$?koniec@@YAXXZ DD imagerel $LN97@koniec
	DD	imagerel $LN97@koniec+220
	DD	imagerel $unwind$?koniec@@YAXXZ
pdata	ENDS
;	COMDAT pdata
pdata	SEGMENT
$pdata$?inf_gl_func@@YAXXZ DD imagerel $LN275@inf_gl_fun
	DD	imagerel $LN275@inf_gl_fun+549
	DD	imagerel $unwind$?inf_gl_func@@YAXXZ
pdata	ENDS
;	COMDAT pdata
pdata	SEGMENT
$pdata$?menu_glowne@@YAXXZ DD imagerel $LN715@menu_glown
	DD	imagerel $LN715@menu_glown+1313
	DD	imagerel $unwind$?menu_glowne@@YAXXZ
pdata	ENDS
;	COMDAT pdata
pdata	SEGMENT
$pdata$?logi_wl_wyl@@YAXH@Z DD imagerel $LN541@logi_wl_wy
	DD	imagerel $LN541@logi_wl_wy+1020
	DD	imagerel $unwind$?logi_wl_wyl@@YAXH@Z
pdata	ENDS
;	COMDAT xdata
xdata	SEGMENT
$ip2state$?logi_wl_wyl@@YAXH@Z DQ 0d8002c024c009e1ar ; -7.96507e+115
	DQ	04d005e02d2005e02r		; 8.41636e+62
	DQ	0005e02d8005e0202r		; 6.67769e-307
	DD	05e02d2H
xdata	ENDS
;	COMDAT xdata
xdata	SEGMENT
$stateUnwindMap$?logi_wl_wyl@@YAXH@Z DW 0c02H
	DD	imagerel ??1?$basic_string@DU?$char_traits@D@std@@V?$allocator@D@2@@std@@QEAA@XZ
	DB	0b0H
xdata	ENDS
;	COMDAT xdata
xdata	SEGMENT
$cppxdata$?logi_wl_wyl@@YAXH@Z DB 028H
	DD	imagerel $stateUnwindMap$?logi_wl_wyl@@YAXH@Z
	DD	imagerel $ip2state$?logi_wl_wyl@@YAXH@Z
xdata	ENDS
;	COMDAT xdata
xdata	SEGMENT
$unwind$?logi_wl_wyl@@YAXH@Z DQ 0000a340d00040d11r ; 1.41895e-308
	DD	05006720dH
	DD	imagerel __CxxFrameHandler4
	DD	imagerel $cppxdata$?logi_wl_wyl@@YAXH@Z
xdata	ENDS
;	COMDAT xdata
xdata	SEGMENT
$ip2state$?menu_glowne@@YAXXZ DQ 04c00e4024c009222r ; 1.3253e+58
	DQ	0d8005e02d8002c02r		; -8.06127e+115
	DQ	0d8005e02d8005e02r		; -8.06127e+115
	DQ	0d2005e02d8005e02r		; -1.01748e+87
	DW	05e02H
	DB	00H
xdata	ENDS
;	COMDAT xdata
xdata	SEGMENT
$stateUnwindMap$?menu_glowne@@YAXXZ DW 0c02H
	DD	imagerel ??1?$basic_string@DU?$char_traits@D@std@@V?$allocator@D@2@@std@@QEAA@XZ
	DB	0a0H
xdata	ENDS
;	COMDAT xdata
xdata	SEGMENT
$cppxdata$?menu_glowne@@YAXXZ DB 028H
	DD	imagerel $stateUnwindMap$?menu_glowne@@YAXXZ
	DD	imagerel $ip2state$?menu_glowne@@YAXXZ
xdata	ENDS
;	COMDAT xdata
xdata	SEGMENT
$unwind$?menu_glowne@@YAXXZ DQ 0000b340d00040d11r ; 1.55801e-308
	DD	05006720dH
	DD	imagerel __CxxFrameHandler4
	DD	imagerel $cppxdata$?menu_glowne@@YAXXZ
xdata	ENDS
;	COMDAT xdata
xdata	SEGMENT
$ip2state$?inf_gl_func@@YAXXZ DQ 029002c024c005e0er ; 3.36227e-111
	DQ	0005e02da005e0202r		; 6.6777e-307
xdata	ENDS
;	COMDAT xdata
xdata	SEGMENT
$stateUnwindMap$?inf_gl_func@@YAXXZ DW 0c02H
	DD	imagerel ??1?$basic_string@DU?$char_traits@D@std@@V?$allocator@D@2@@std@@QEAA@XZ
	DB	0a0H
xdata	ENDS
;	COMDAT xdata
xdata	SEGMENT
$cppxdata$?inf_gl_func@@YAXXZ DB 028H
	DD	imagerel $stateUnwindMap$?inf_gl_func@@YAXXZ
	DD	imagerel $ip2state$?inf_gl_func@@YAXXZ
xdata	ENDS
;	COMDAT xdata
xdata	SEGMENT
$unwind$?inf_gl_func@@YAXXZ DQ 0000b340d00040d11r ; 1.55801e-308
	DD	05006720dH
	DD	imagerel __CxxFrameHandler4
	DD	imagerel $cppxdata$?inf_gl_func@@YAXXZ
xdata	ENDS
;	COMDAT xdata
xdata	SEGMENT
$ip2state$?koniec@@YAXXZ DD 058009206H
	DW	02c02H
	DB	00H
xdata	ENDS
;	COMDAT xdata
xdata	SEGMENT
$stateUnwindMap$?koniec@@YAXXZ DW 0c02H
	DD	imagerel ??1?$basic_string@DU?$char_traits@D@std@@V?$allocator@D@2@@std@@QEAA@XZ
	DB	0a0H
xdata	ENDS
;	COMDAT xdata
xdata	SEGMENT
$cppxdata$?koniec@@YAXXZ DB 028H
	DD	imagerel $stateUnwindMap$?koniec@@YAXXZ
	DD	imagerel $ip2state$?koniec@@YAXXZ
xdata	ENDS
;	COMDAT xdata
xdata	SEGMENT
$unwind$?koniec@@YAXXZ DQ 03002720600020611r	; 1.99122e-77
	DD	imagerel __CxxFrameHandler4
	DD	imagerel $cppxdata$?koniec@@YAXXZ
xdata	ENDS
;	COMDAT xdata
xdata	SEGMENT
$unwind$?color@@YAXF@Z DQ 03002320600020601r	; 1.96423e-77
END
